Certificate:
    Data:
        Version: 3 (0x2)
        Serial Number:
            11:cc:2c:21:00:c4:db:c0:23:bf:94:14:17:fa:46:3b:87:3e:4a:67
        Signature Algorithm: sha256WithRSAEncryption
        Issuer: CN=cacert, C=FI, ST=Helsinki, L=Helsinki, O=MariaDB
        Validity
            Not Before: Jun 24 03:07:13 2025 GMT
            Not After : Jun 19 03:07:13 2045 GMT
        Subject: CN=cacert, C=FI, ST=Helsinki, L=Helsinki, O=MariaDB
        Subject Public Key Info:
            Public Key Algorithm: rsaEncryption
                Public-Key: (4096 bit)
                Modulus:
                    00:b1:fa:c0:d1:5c:1e:35:66:e4:86:ee:cb:da:57:
                    df:8a:f8:8c:21:9a:5e:6a:00:74:62:e8:73:b7:b9:
                    17:c5:bc:23:fe:ed:3f:9e:79:1b:06:22:08:8c:13:
                    bb:f1:c1:ec:6b:43:7d:b8:0d:82:ea:47:5b:54:1d:
                    06:c8:d1:36:d1:aa:a5:ae:47:64:78:10:0c:48:87:
                    ce:29:00:2f:19:57:39:ed:c1:66:e8:a4:59:ab:9c:
                    5c:ec:7f:f9:a2:37:11:f4:a2:f2:6e:9c:c9:3a:57:
                    17:10:ea:de:6e:5f:66:88:e5:fd:c7:c9:28:0d:8d:
                    a7:cb:27:f0:f7:ab:ab:19:30:57:b6:d7:b4:e5:82:
                    d9:1b:f2:d1:61:c8:ce:e6:fd:24:89:4f:e8:1f:fc:
                    bf:57:a7:63:8a:e2:eb:50:b7:b9:39:69:ab:ad:3d:
                    78:d4:d3:32:91:bf:21:04:ec:7e:a4:f7:bb:b5:6f:
                    90:b7:0d:bd:87:af:3b:10:2d:4a:7f:3d:04:1f:b7:
                    31:80:ac:02:fa:b6:a5:02:c8:3e:20:d4:c3:cc:63:
                    b3:f2:8c:7d:ea:1d:38:70:1d:91:fd:27:f7:df:82:
                    49:d0:64:0c:67:24:b3:0e:ff:e4:2e:59:9d:1c:17:
                    1f:4b:b1:95:c4:92:66:bc:32:8c:8f:bd:db:58:3f:
                    1e:f4:cb:25:d5:42:2d:7b:a9:99:c0:48:20:e5:89:
                    aa:84:c8:22:88:ec:1b:c3:4d:87:60:19:92:37:34:
                    59:f5:00:ad:01:4b:0a:0d:1e:66:3e:dc:a3:d7:89:
                    ab:4a:9a:48:ae:92:f0:8b:a8:96:22:2b:68:c7:fc:
                    9d:73:32:41:cc:82:eb:99:b8:2e:7c:29:18:ea:4b:
                    f8:8f:48:54:22:5a:aa:8a:b5:8c:10:72:90:e7:d1:
                    f8:bb:ec:8f:39:69:15:af:cb:c6:7d:21:ea:86:73:
                    37:25:86:e4:b4:d5:42:45:62:c4:52:45:81:fb:df:
                    d0:92:e1:a6:e4:6f:b8:bd:20:f5:bd:3c:3f:33:af:
                    4d:1f:1c:00:e4:19:6c:87:22:58:37:b7:35:6c:1e:
                    08:1f:85:e6:4e:30:90:68:49:24:6a:c4:29:3c:52:
                    01:4a:f1:c4:62:6e:25:21:cd:85:5d:08:94:44:fd:
                    6f:e0:3e:39:5c:69:1d:d5:1f:bd:42:54:08:3b:38:
                    5b:9b:34:e5:1b:75:2d:74:0b:ee:67:01:c7:0c:26:
                    ec:04:55:3f:25:dc:8a:99:e7:b5:57:da:60:3b:83:
                    08:eb:18:2e:cf:c8:a1:a5:29:75:1c:3f:83:fd:fe:
                    6a:3f:79:00:fb:66:3e:90:11:cd:a1:a5:d6:b1:09:
                    1f:55:81
                Exponent: 65537 (0x10001)
        X509v3 extensions:
            X509v3 Subject Key Identifier: 
                7F:89:8E:FD:E7:90:99:31:8C:2B:94:FE:94:67:67:16:13:9B:61:96
            X509v3 Authority Key Identifier: 
                7F:89:8E:FD:E7:90:99:31:8C:2B:94:FE:94:67:67:16:13:9B:61:96
            X509v3 Basic Constraints: critical
                CA:TRUE
    Signature Algorithm: sha256WithRSAEncryption
    Signature Value:
        60:38:f5:67:f5:cd:67:98:c0:7e:3f:6e:4a:cc:d1:42:bc:3e:
        a7:6e:64:84:a0:b1:a2:57:07:29:41:6c:bd:1f:a2:10:8c:d0:
        1e:45:7d:49:06:b9:c9:b6:a5:07:7e:02:3a:a1:0a:7c:db:26:
        86:81:b6:de:81:45:11:43:ab:41:62:54:e7:80:c3:17:c8:90:
        c2:09:25:f1:32:1d:e2:85:cf:4e:10:2d:f6:7e:f6:32:90:8a:
        1d:52:ec:15:09:b8:91:fd:f8:2e:af:6e:d3:bd:b5:be:dd:b9:
        c5:a5:8c:1a:c2:10:fd:79:59:8e:bc:13:51:b5:32:ca:5a:73:
        cc:89:8a:55:7c:11:68:b5:19:db:5d:b1:72:6c:b3:bf:ed:c3:
        47:98:17:cb:60:86:59:fe:63:8b:fc:b2:b7:ff:97:40:ec:78:
        e5:69:41:d3:b7:87:a9:9e:bb:d3:6d:4a:ad:81:72:16:17:87:
        23:bf:03:d3:8d:07:70:84:31:a8:80:4a:a3:c6:03:bb:0d:ab:
        a5:88:ae:4c:58:5b:ec:83:09:25:90:ec:45:27:e4:88:ec:ac:
        88:1c:bb:45:d6:b9:87:ac:ed:03:d2:b2:54:06:5a:cb:36:1d:
        72:29:e1:91:12:3f:a5:a9:36:ab:01:6d:e9:f7:b0:fb:69:50:
        19:a3:d5:80:f8:10:25:97:88:f6:b6:35:63:a2:74:00:e0:36:
        85:40:61:06:ba:d2:2c:59:0a:fe:ac:66:c1:3f:14:28:ae:48:
        f2:34:a8:21:2a:d0:1b:7e:41:1e:55:36:77:1c:b5:fa:65:db:
        d7:67:49:78:34:6e:18:9a:88:15:30:21:6b:c8:de:ce:14:a2:
        ae:02:19:cf:6e:4b:4c:cc:3f:1a:c2:7f:17:01:8d:5f:12:06:
        f2:3b:c8:bb:a6:b5:0a:47:8a:88:32:14:b5:d3:0c:cd:be:8d:
        10:b8:fb:ea:41:9c:bf:0a:8b:dc:68:e7:54:21:df:76:29:6f:
        b0:04:fc:13:26:15:56:74:3b:70:3f:37:72:fb:f2:d7:c9:35:
        ac:ef:d8:90:55:a0:22:56:cb:9b:64:a4:48:7a:eb:a7:11:16:
        9b:b8:63:11:9f:94:9c:ac:88:0f:90:ca:a6:4f:c7:c4:2c:e4:
        12:63:36:af:a7:b1:fc:7d:d3:11:8b:e1:51:75:5c:17:c0:5f:
        7a:45:08:4c:b0:0d:d1:ce:f9:c6:45:f8:c7:cf:13:48:61:fb:
        e0:59:b4:d8:8f:a1:8d:21:8e:cd:5d:80:24:e4:7b:59:1f:a8:
        73:d9:1b:e5:71:65:a9:4b:24:00:54:ad:21:51:55:09:3d:7f:
        38:e5:ff:8c:d2:6f:7d:84
-----BEGIN CERTIFICATE-----
MIIFjTCCA3WgAwIBAgIUEcwsIQDE28Ajv5QUF/pGO4c+SmcwDQYJKoZIhvcNAQEL
BQAwVjEPMA0GA1UEAwwGY2FjZXJ0MQswCQYDVQQGEwJGSTERMA8GA1UECAwISGVs
c2lua2kxETAPBgNVBAcMCEhlbHNpbmtpMRAwDgYDVQQKDAdNYXJpYURCMB4XDTI1
MDYyNDAzMDcxM1oXDTQ1MDYxOTAzMDcxM1owVjEPMA0GA1UEAwwGY2FjZXJ0MQsw
CQYDVQQGEwJGSTERMA8GA1UECAwISGVsc2lua2kxETAPBgNVBAcMCEhlbHNpbmtp
MRAwDgYDVQQKDAdNYXJpYURCMIICIjANBgkqhkiG9w0BAQEFAAOCAg8AMIICCgKC
AgEAsfrA0VweNWbkhu7L2lffiviMIZpeagB0Yuhzt7kXxbwj/u0/nnkbBiIIjBO7
8cHsa0N9uA2C6kdbVB0GyNE20aqlrkdkeBAMSIfOKQAvGVc57cFm6KRZq5xc7H/5
ojcR9KLybpzJOlcXEOrebl9miOX9x8koDY2nyyfw96urGTBXtte05YLZG/LRYcjO
5v0kiU/oH/y/V6djiuLrULe5OWmrrT141NMykb8hBOx+pPe7tW+Qtw29h687EC1K
fz0EH7cxgKwC+ralAsg+INTDzGOz8ox96h04cB2R/Sf334JJ0GQMZySzDv/kLlmd
HBcfS7GVxJJmvDKMj73bWD8e9Msl1UIte6mZwEgg5YmqhMgiiOwbw02HYBmSNzRZ
9QCtAUsKDR5mPtyj14mrSppIrpLwi6iWIitox/ydczJBzILrmbgufCkY6kv4j0hU
IlqqirWMEHKQ59H4u+yPOWkVr8vGfSHqhnM3JYbktNVCRWLEUkWB+9/QkuGm5G+4
vSD1vTw/M69NHxwA5BlshyJYN7c1bB4IH4XmTjCQaEkkasQpPFIBSvHEYm4lIc2F
XQiURP1v4D45XGkd1R+9QlQIOzhbmzTlG3UtdAvuZwHHDCbsBFU/JdyKmee1V9pg
O4MI6xguz8ihpSl1HD+D/f5qP3kA+2Y+kBHNoaXWsQkfVYECAwEAAaNTMFEwHQYD
VR0OBBYEFH+Jjv3nkJkxjCuU/pRnZxYTm2GWMB8GA1UdIwQYMBaAFH+Jjv3nkJkx
jCuU/pRnZxYTm2GWMA8GA1UdEwEB/wQFMAMBAf8wDQYJKoZIhvcNAQELBQADggIB
AGA49Wf1zWeYwH4/bkrM0UK8PqduZISgsaJXBylBbL0fohCM0B5FfUkGucm2pQd+
AjqhCnzbJoaBtt6BRRFDq0FiVOeAwxfIkMIJJfEyHeKFz04QLfZ+9jKQih1S7BUJ
uJH9+C6vbtO9tb7ducWljBrCEP15WY68E1G1Mspac8yJilV8EWi1GdtdsXJss7/t
w0eYF8tghln+Y4v8srf/l0DseOVpQdO3h6meu9NtSq2BchYXhyO/A9ONB3CEMaiA
SqPGA7sNq6WIrkxYW+yDCSWQ7EUn5IjsrIgcu0XWuYes7QPSslQGWss2HXIp4ZES
P6WpNqsBben3sPtpUBmj1YD4ECWXiPa2NWOidADgNoVAYQa60ixZCv6sZsE/FCiu
SPI0qCEq0Bt+QR5VNncctfpl29dnSXg0bhiaiBUwIWvI3s4Uoq4CGc9uS0zMPxrC
fxcBjV8SBvI7yLumtQpHiogyFLXTDM2+jRC4++pBnL8Ki9xo51Qh33Ypb7AE/BMm
FVZ0O3A/N3L78tfJNazv2JBVoCJWy5tkpEh666cRFpu4YxGflJysiA+QyqZPx8Qs
5BJjNq+nsfx90xGL4VF1XBfAX3pFCEywDdHO+cZF+MfPE0hh++BZtNiPoY0hjs1d
gCTke1kfqHPZG+VxZalLJABUrSFRVQk9fzjl/4zSb32E
-----END CERTIFICATE-----
