Certificate:
    Data:
        Version: 3 (0x2)
        Serial Number:
            e5:b1:e3:71:e9:6f:a9:e1
    Signature Algorithm: sha256WithRSAEncryption
        Issuer: CN=cacert, C=FI, ST=Helsinki, L=Helsinki, O=MariaDB
        Validity
            Not Before: Apr 25 20:52:21 2017 GMT
            Not After : Apr 20 20:52:21 2037 GMT
        Subject: CN=cacert, C=FI, ST=Helsinki, L=Helsinki, O=MariaDB
        Subject Public Key Info:
            Public Key Algorithm: rsaEncryption
                Public-Key: (2048 bit)
                Modulus:
                    00:a0:ad:d5:b1:ec:45:6f:d6:33:fc:5a:03:29:14:
                    f1:8e:78:d5:27:53:79:e0:92:7c:10:3b:79:a0:d7:
                    b6:9d:a8:5c:4d:fa:68:11:b3:03:9e:ee:5e:20:79:
                    23:d8:9c:49:34:9c:1d:c4:6e:53:1f:9a:92:1f:08:
                    c1:15:e2:ad:cf:59:cd:1e:55:84:79:f9:09:ca:36:
                    8a:50:83:c6:38:48:c6:d3:fa:f6:f2:2a:4f:bd:5d:
                    60:9d:eb:21:c4:8c:f2:dd:2d:49:10:63:46:47:de:
                    2d:59:a0:4a:e0:58:e6:c0:ae:d8:d4:5e:9a:f8:f5:
                    68:1d:ea:80:8a:d6:01:b0:d5:5f:30:4d:88:5a:c5:
                    1f:81:92:c1:40:54:c8:bb:a6:a1:43:de:81:3c:4b:
                    79:95:82:bb:52:da:a3:a4:a0:69:ff:7e:00:8c:86:
                    85:ec:af:03:68:a8:83:48:a0:e4:1d:31:a9:5c:47:
                    99:9d:3a:3f:b5:3e:12:7c:4d:47:15:72:f1:11:5c:
                    4a:ef:08:1c:7b:8f:e6:03:06:07:4f:94:21:b0:5e:
                    27:fa:93:8c:b4:cc:56:34:3b:6d:c4:4a:14:57:b2:
                    21:1a:3e:2f:c5:9e:47:1a:59:05:22:0e:56:b1:a7:
                    e8:80:9b:82:c3:54:57:12:05:94:79:a2:03:d9:64:
                    3c:63
                Exponent: 65537 (0x10001)
        X509v3 extensions:
            X509v3 Subject Key Identifier: 
                1C:C7:2B:AA:1B:B1:BB:2E:9A:F4:0F:B1:86:60:57:38:C2:41:05:12
            X509v3 Authority Key Identifier: 
                keyid:1C:C7:2B:AA:1B:B1:BB:2E:9A:F4:0F:B1:86:60:57:38:C2:41:05:12

            X509v3 Basic Constraints: 
                CA:TRUE
    Signature Algorithm: sha256WithRSAEncryption
         0d:4b:21:52:fa:49:34:56:14:db:83:ae:1c:3d:a7:4d:3e:ea:
         55:7e:1a:37:7a:65:89:ee:19:05:94:9d:3a:ad:59:c4:38:16:
         b2:bd:02:ee:5a:a6:7e:e2:b1:21:a3:ad:af:8c:ae:c3:30:71:
         ad:d7:d2:24:0f:c4:d9:47:80:c5:95:05:1d:7c:8a:49:0a:7d:
         8b:61:ca:b5:68:3d:3e:4e:f1:c7:45:62:c8:cc:a9:2f:f3:12:
         f1:3f:92:34:7f:07:ab:d3:ac:ab:af:2d:c9:69:63:8a:b2:e5:
         35:ea:7d:b8:17:38:72:82:5f:96:3d:dc:8d:e5:11:bb:ae:f3:
         02:2d:20:77:5c:64:59:18:a6:e7:fa:c7:89:e8:30:12:14:04:
         40:5b:e9:b1:8f:86:81:b9:0d:6c:b6:fc:98:f9:b7:52:ab:8f:
         7e:53:c8:a0:05:e4:cd:0d:6b:d2:74:9f:17:7a:a1:c3:76:5e:
         f3:29:1c:c6:be:56:ab:02:f7:5d:e1:c9:21:27:6d:66:7a:41:
         29:49:a3:f8:f5:2a:e7:03:2a:7c:52:4b:f5:46:58:45:be:a4:
         4c:a0:65:37:1d:d8:ac:f8:1f:81:ca:9c:79:f0:ff:22:8c:1d:
         ce:2b:d0:1e:ce:99:f2:db:fa:66:84:e6:86:6f:19:3b:10:f1:
         92:ac:57:b2
-----BEGIN CERTIFICATE-----
MIIDfzCCAmegAwIBAgIJAOWx43Hpb6nhMA0GCSqGSIb3DQEBCwUAMFYxDzANBgNV
BAMMBmNhY2VydDELMAkGA1UEBhMCRkkxETAPBgNVBAgMCEhlbHNpbmtpMREwDwYD
VQQHDAhIZWxzaW5raTEQMA4GA1UECgwHTWFyaWFEQjAeFw0xNzA0MjUyMDUyMjFa
Fw0zNzA0MjAyMDUyMjFaMFYxDzANBgNVBAMMBmNhY2VydDELMAkGA1UEBhMCRkkx
ETAPBgNVBAgMCEhlbHNpbmtpMREwDwYDVQQHDAhIZWxzaW5raTEQMA4GA1UECgwH
TWFyaWFEQjCCASIwDQYJKoZIhvcNAQEBBQADggEPADCCAQoCggEBAKCt1bHsRW/W
M/xaAykU8Y541SdTeeCSfBA7eaDXtp2oXE36aBGzA57uXiB5I9icSTScHcRuUx+a
kh8IwRXirc9ZzR5VhHn5Cco2ilCDxjhIxtP69vIqT71dYJ3rIcSM8t0tSRBjRkfe
LVmgSuBY5sCu2NRemvj1aB3qgIrWAbDVXzBNiFrFH4GSwUBUyLumoUPegTxLeZWC
u1Lao6Sgaf9+AIyGheyvA2iog0ig5B0xqVxHmZ06P7U+EnxNRxVy8RFcSu8IHHuP
5gMGB0+UIbBeJ/qTjLTMVjQ7bcRKFFeyIRo+L8WeRxpZBSIOVrGn6ICbgsNUVxIF
lHmiA9lkPGMCAwEAAaNQME4wHQYDVR0OBBYEFBzHK6obsbsumvQPsYZgVzjCQQUS
MB8GA1UdIwQYMBaAFBzHK6obsbsumvQPsYZgVzjCQQUSMAwGA1UdEwQFMAMBAf8w
DQYJKoZIhvcNAQELBQADggEBAA1LIVL6STRWFNuDrhw9p00+6lV+Gjd6ZYnuGQWU
nTqtWcQ4FrK9Au5apn7isSGjra+MrsMwca3X0iQPxNlHgMWVBR18ikkKfYthyrVo
PT5O8cdFYsjMqS/zEvE/kjR/B6vTrKuvLclpY4qy5TXqfbgXOHKCX5Y93I3lEbuu
8wItIHdcZFkYpuf6x4noMBIUBEBb6bGPhoG5DWy2/Jj5t1Krj35TyKAF5M0Na9J0
nxd6ocN2XvMpHMa+VqsC913hySEnbWZ6QSlJo/j1KucDKnxSS/VGWEW+pEygZTcd
2Kz4H4HKnHnw/yKMHc4r0B7OmfLb+maE5oZvGTsQ8ZKsV7I=
-----END CERTIFICATE-----
