Certificate:
    Data:
        Version: 3 (0x2)
        Serial Number:
            6f:b3:fb:f8:f4:e8:51:20:3d:b4:32:7a:ba:92:d5:3c:b4:8b:2c:d2
        Signature Algorithm: sha256WithRSAEncryption
        Issuer: CN = cacert, C = FI, ST = Helsinki, L = Helsinki, O = MariaDB
        Validity
            Not Before: Jun 27 00:47:54 2024 GMT
            Not After : Jun 22 00:47:54 2044 GMT
        Subject: CN = cacert, C = FI, ST = Helsinki, L = Helsinki, O = MariaDB
        Subject Public Key Info:
            Public Key Algorithm: rsaEncryption
                Public-Key: (2048 bit)
                Modulus:
                    00:d3:10:24:cd:92:d5:a6:79:c2:21:1b:63:6c:1f:
                    b3:8d:b7:09:79:18:53:ac:34:06:4f:fd:dc:46:15:
                    50:02:d7:13:cc:85:ae:40:20:aa:fc:dc:66:f5:75:
                    95:1a:82:33:95:01:f7:4b:a5:38:11:5d:19:e5:9c:
                    00:39:7a:c5:b4:39:6a:4c:2a:19:4d:d1:b7:74:ab:
                    f3:1a:8d:3f:ca:a3:01:a4:cd:d3:38:4c:b1:ba:b6:
                    1c:10:c4:e4:ae:87:5d:11:1c:e0:fe:28:d9:92:47:
                    91:bd:42:9c:06:55:9f:54:aa:8d:6b:93:33:03:83:
                    c8:48:40:2e:ec:d5:ea:ea:88:aa:de:18:05:d7:e8:
                    8b:a9:ee:18:19:26:99:1e:cc:84:cc:29:75:01:2b:
                    af:78:2f:e1:b3:1c:e6:de:d3:81:ef:4b:f6:79:c1:
                    50:3d:cd:43:74:47:09:bd:4b:f9:03:65:12:2e:ae:
                    ba:8a:71:d2:c0:0a:94:d6:ce:04:26:6c:c9:88:7d:
                    d2:39:36:2d:30:d0:1f:be:c1:43:b3:a1:bf:2e:23:
                    bd:a2:fa:46:03:09:20:59:99:94:2b:c7:58:00:62:
                    39:2e:bd:59:b1:ea:eb:dc:c0:a9:ef:db:a1:d0:06:
                    9f:cf:17:bf:fe:6d:a4:77:d9:ad:0b:5c:e2:bc:36:
                    89:6d
                Exponent: 65537 (0x10001)
        X509v3 extensions:
            X509v3 Subject Key Identifier: 
                AE:15:21:04:AE:31:34:9B:14:11:EC:6B:9B:9B:45:6E:57:09:61:EC
            X509v3 Authority Key Identifier: 
                AE:15:21:04:AE:31:34:9B:14:11:EC:6B:9B:9B:45:6E:57:09:61:EC
            X509v3 Basic Constraints: critical
                CA:TRUE
    Signature Algorithm: sha256WithRSAEncryption
    Signature Value:
        26:7a:c1:ed:64:32:e6:7e:57:6a:90:b6:9e:19:1b:64:3f:18:
        79:95:28:9c:d0:b5:4f:e5:3f:ee:0b:68:94:ca:50:70:b9:4f:
        80:d3:17:7b:3f:a2:46:f7:0e:e5:a3:80:4a:e9:e4:21:21:43:
        c3:e8:d5:2c:3e:12:e1:4e:01:e0:bf:88:97:0a:73:5d:16:2d:
        01:ba:56:43:bb:1f:04:ac:87:2c:54:9a:11:ba:c1:b1:03:dd:
        54:a2:2c:55:ed:2d:31:ae:69:eb:73:58:81:08:1a:5d:a0:33:
        34:d9:24:a8:50:b4:bb:fa:3d:71:15:88:c0:d2:bb:68:09:cf:
        aa:4d:b9:1d:ba:4b:9f:73:7b:9f:77:5f:bb:46:a2:bb:da:e5:
        ea:18:72:5b:74:30:7e:66:30:90:d7:0f:be:ef:a3:66:08:95:
        94:79:de:c0:e0:01:68:18:a4:4a:06:a3:8c:90:5e:c0:93:85:
        1e:ae:1c:a0:64:d2:91:20:64:24:8c:3f:c4:ea:7b:a9:3d:b8:
        bc:63:cc:d3:ac:f2:7c:f3:c4:51:80:64:9b:60:33:8d:85:e1:
        25:a6:9e:fc:55:55:85:bb:43:14:72:d3:9d:14:06:ff:50:6c:
        06:78:ee:52:07:51:cc:22:b8:40:06:ed:e8:9b:ca:6d:21:33:
        47:a2:5e:13
-----BEGIN CERTIFICATE-----
MIIDjTCCAnWgAwIBAgIUb7P7+PToUSA9tDJ6upLVPLSLLNIwDQYJKoZIhvcNAQEL
BQAwVjEPMA0GA1UEAwwGY2FjZXJ0MQswCQYDVQQGEwJGSTERMA8GA1UECAwISGVs
c2lua2kxETAPBgNVBAcMCEhlbHNpbmtpMRAwDgYDVQQKDAdNYXJpYURCMB4XDTI0
MDYyNzAwNDc1NFoXDTQ0MDYyMjAwNDc1NFowVjEPMA0GA1UEAwwGY2FjZXJ0MQsw
CQYDVQQGEwJGSTERMA8GA1UECAwISGVsc2lua2kxETAPBgNVBAcMCEhlbHNpbmtp
MRAwDgYDVQQKDAdNYXJpYURCMIIBIjANBgkqhkiG9w0BAQEFAAOCAQ8AMIIBCgKC
AQEA0xAkzZLVpnnCIRtjbB+zjbcJeRhTrDQGT/3cRhVQAtcTzIWuQCCq/Nxm9XWV
GoIzlQH3S6U4EV0Z5ZwAOXrFtDlqTCoZTdG3dKvzGo0/yqMBpM3TOEyxurYcEMTk
roddERzg/ijZkkeRvUKcBlWfVKqNa5MzA4PISEAu7NXq6oiq3hgF1+iLqe4YGSaZ
HsyEzCl1ASuveC/hsxzm3tOB70v2ecFQPc1DdEcJvUv5A2USLq66inHSwAqU1s4E
JmzJiH3SOTYtMNAfvsFDs6G/LiO9ovpGAwkgWZmUK8dYAGI5Lr1Zserr3MCp79uh
0Aafzxe//m2kd9mtC1zivDaJbQIDAQABo1MwUTAdBgNVHQ4EFgQUrhUhBK4xNJsU
Eexrm5tFblcJYewwHwYDVR0jBBgwFoAUrhUhBK4xNJsUEexrm5tFblcJYewwDwYD
VR0TAQH/BAUwAwEB/zANBgkqhkiG9w0BAQsFAAOCAQEAJnrB7WQy5n5XapC2nhkb
ZD8YeZUonNC1T+U/7gtolMpQcLlPgNMXez+iRvcO5aOASunkISFDw+jVLD4S4U4B
4L+IlwpzXRYtAbpWQ7sfBKyHLFSaEbrBsQPdVKIsVe0tMa5p63NYgQgaXaAzNNkk
qFC0u/o9cRWIwNK7aAnPqk25HbpLn3N7n3dfu0aiu9rl6hhyW3QwfmYwkNcPvu+j
ZgiVlHnewOABaBikSgajjJBewJOFHq4coGTSkSBkJIw/xOp7qT24vGPM06zyfPPE
UYBkm2AzjYXhJaae/FVVhbtDFHLTnRQG/1BsBnjuUgdRzCK4QAbt6JvKbSEzR6Je
Ew==
-----END CERTIFICATE-----
