Certificate:
    Data:
        Version: 3 (0x2)
        Serial Number:
            c8:ae:a5:b8:5b:90:50:49
    Signature Algorithm: sha256WithRSAEncryption
        Issuer: CN = cacert, C = FI, ST = Helsinki, L = Helsinki, O = MariaDB
        Validity
            Not Before: Apr 24 14:29:39 2019 GMT
            Not After : Apr 19 14:29:39 2039 GMT
        Subject: CN = cacert, C = FI, ST = Helsinki, L = Helsinki, O = MariaDB
        Subject Public Key Info:
            Public Key Algorithm: rsaEncryption
                Public-Key: (2048 bit)
                Modulus:
                    00:d6:d4:5c:62:a3:d7:9a:8e:f3:60:a5:f2:07:64:
                    bd:f8:2e:16:73:44:1e:4c:5a:96:07:08:88:84:d0:
                    4d:15:83:0c:af:65:4c:55:42:96:14:82:f8:00:66:
                    5b:2c:b5:7b:e7:44:a5:aa:4e:63:e1:d9:88:05:2a:
                    80:c2:f2:4d:70:eb:63:24:7f:f9:d9:70:13:53:cb:
                    45:12:0c:3c:1e:d2:ce:08:f9:b9:e0:bf:8d:6b:0c:
                    b9:29:99:31:96:f9:b6:b0:fd:e5:14:d9:e7:3b:77:
                    26:5c:c1:e3:54:c7:63:e0:a3:30:de:86:06:19:0f:
                    7e:04:d2:d2:d3:f0:78:23:21:79:3c:9a:42:41:6e:
                    53:36:de:dc:0f:c7:98:8a:85:79:0a:d4:ef:90:02:
                    1b:12:3a:60:32:6c:54:c5:8a:7f:74:24:0e:d3:08:
                    5b:d2:e6:ae:de:17:47:8f:4d:ae:13:00:67:45:e6:
                    bc:0e:ee:1b:0d:44:b2:0c:25:6d:b8:38:5c:87:c1:
                    d3:98:27:a1:56:21:5c:42:15:b3:f4:b7:ec:ae:bd:
                    ae:af:e4:50:0d:34:7c:3c:e1:b1:64:f6:e4:07:53:
                    9d:96:44:8a:41:e0:3c:df:f2:fc:6d:de:f7:5d:8c:
                    04:ca:e1:4f:cc:a5:c5:0c:ce:a8:f7:49:b5:63:6b:
                    02:53
                Exponent: 65537 (0x10001)
        X509v3 extensions:
            X509v3 Subject Key Identifier: 
                F3:1D:A0:5F:69:33:8A:A4:B4:76:97:A2:6E:AB:FD:A0:BF:F3:2C:CE
            X509v3 Authority Key Identifier: 
                keyid:F3:1D:A0:5F:69:33:8A:A4:B4:76:97:A2:6E:AB:FD:A0:BF:F3:2C:CE

            X509v3 Basic Constraints: critical
                CA:TRUE
    Signature Algorithm: sha256WithRSAEncryption
         0c:1b:af:48:e0:29:ff:d5:23:27:4f:0b:f6:4d:d3:c6:73:13:
         ee:fa:ba:84:9e:22:c6:c4:35:11:d3:aa:42:11:a5:4f:97:39:
         72:d5:eb:6e:3e:d1:75:dc:51:bc:bc:ab:2a:0d:28:aa:3a:2e:
         f1:7f:ae:a0:16:27:07:2e:a3:f1:06:ed:33:9b:8f:b5:3a:ca:
         8c:a7:e8:fe:b9:a4:b3:4e:c1:27:7d:7b:23:33:10:fe:27:4b:
         a2:b1:6a:32:09:30:84:24:d2:1d:02:9d:41:3b:ba:4e:51:ff:
         ce:98:c3:c9:9a:22:b8:ac:21:5b:c3:89:28:8e:3b:6a:9c:d3:
         5f:ef:99:6d:ac:f5:56:81:09:97:22:31:96:49:b8:75:1d:71:
         5c:76:7d:64:87:77:18:30:4e:43:f7:c3:1a:f9:d5:cf:97:29:
         28:cf:40:84:da:35:29:bc:f6:9a:9e:e9:ce:f8:cc:57:02:41:
         13:d1:60:18:41:60:b7:17:c6:b6:6d:71:d8:20:50:56:13:3c:
         6c:23:0e:91:1b:2f:8d:31:e8:82:da:71:5f:6c:1c:3f:f6:7f:
         2c:30:47:eb:89:c6:28:9b:61:62:43:e2:3a:91:48:0b:1e:2a:
         c0:d9:a0:59:69:4f:13:58:cc:4a:8a:37:2e:c6:c1:a1:7b:03:
         4a:e5:cb:98
-----BEGIN CERTIFICATE-----
MIIDgjCCAmqgAwIBAgIJAMiupbhbkFBJMA0GCSqGSIb3DQEBCwUAMFYxDzANBgNV
BAMMBmNhY2VydDELMAkGA1UEBhMCRkkxETAPBgNVBAgMCEhlbHNpbmtpMREwDwYD
VQQHDAhIZWxzaW5raTEQMA4GA1UECgwHTWFyaWFEQjAeFw0xOTA0MjQxNDI5Mzla
Fw0zOTA0MTkxNDI5MzlaMFYxDzANBgNVBAMMBmNhY2VydDELMAkGA1UEBhMCRkkx
ETAPBgNVBAgMCEhlbHNpbmtpMREwDwYDVQQHDAhIZWxzaW5raTEQMA4GA1UECgwH
TWFyaWFEQjCCASIwDQYJKoZIhvcNAQEBBQADggEPADCCAQoCggEBANbUXGKj15qO
82Cl8gdkvfguFnNEHkxalgcIiITQTRWDDK9lTFVClhSC+ABmWyy1e+dEpapOY+HZ
iAUqgMLyTXDrYyR/+dlwE1PLRRIMPB7Szgj5ueC/jWsMuSmZMZb5trD95RTZ5zt3
JlzB41THY+CjMN6GBhkPfgTS0tPweCMheTyaQkFuUzbe3A/HmIqFeQrU75ACGxI6
YDJsVMWKf3QkDtMIW9Lmrt4XR49NrhMAZ0XmvA7uGw1Esgwlbbg4XIfB05gnoVYh
XEIVs/S37K69rq/kUA00fDzhsWT25AdTnZZEikHgPN/y/G3e912MBMrhT8ylxQzO
qPdJtWNrAlMCAwEAAaNTMFEwHQYDVR0OBBYEFPMdoF9pM4qktHaXom6r/aC/8yzO
MB8GA1UdIwQYMBaAFPMdoF9pM4qktHaXom6r/aC/8yzOMA8GA1UdEwEB/wQFMAMB
Af8wDQYJKoZIhvcNAQELBQADggEBAAwbr0jgKf/VIydPC/ZN08ZzE+76uoSeIsbE
NRHTqkIRpU+XOXLV624+0XXcUby8qyoNKKo6LvF/rqAWJwcuo/EG7TObj7U6yoyn
6P65pLNOwSd9eyMzEP4nS6KxajIJMIQk0h0CnUE7uk5R/86Yw8maIrisIVvDiSiO
O2qc01/vmW2s9VaBCZciMZZJuHUdcVx2fWSHdxgwTkP3wxr51c+XKSjPQITaNSm8
9pqe6c74zFcCQRPRYBhBYLcXxrZtcdggUFYTPGwjDpEbL40x6ILacV9sHD/2fyww
R+uJxiibYWJD4jqRSAseKsDZoFlpTxNYzEqKNy7GwaF7A0rly5g=
-----END CERTIFICATE-----
