Certificate:
    Data:
        Version: 3 (0x2)
        Serial Number: 5 (0x5)
        Signature Algorithm: sha256WithRSAEncryption
        Issuer: CN=cacert, C=FI, ST=Helsinki, L=Helsinki, O=MariaDB
        Validity
            Not Before: Mar  3 03:03:03 2020 GMT
            Not After : Feb 27 03:03:03 2040 GMT
        Subject: C=FI, ST=Helsinki, L=Helsinki, O=MariaDB, CN=client
        Subject Public Key Info:
            Public Key Algorithm: rsaEncryption
                RSA Public-Key: (4096 bit)
                Modulus:
                    00:e6:69:89:28:b0:92:32:09:0b:6c:d5:0d:32:ae:
                    8a:08:19:39:83:ad:26:7b:33:e2:a3:a2:f7:f9:ae:
                    4f:cd:ab:58:75:8d:66:a3:0d:f4:43:a9:de:4e:04:
                    03:70:01:0b:fc:eb:04:a1:14:76:61:8d:25:5c:15:
                    65:dd:f2:a6:cf:23:6e:d6:9f:d8:0c:d1:cc:5e:7e:
                    8c:2b:de:43:b6:1b:59:fe:f1:7c:76:09:ad:44:26:
                    2a:61:b1:d1:6d:b5:ea:11:2f:da:00:79:30:6c:a7:
                    3a:3a:5b:ad:a6:db:29:51:cf:1f:c8:d4:14:57:31:
                    48:6e:2c:d7:93:bc:c5:2e:c0:a3:6d:7a:4e:ac:46:
                    57:f5:7a:1f:5c:e7:c3:b8:89:d9:62:8a:05:0c:d8:
                    88:94:a7:79:ec:71:c8:aa:00:d6:b2:d1:a3:9c:04:
                    b7:d0:6c:f0:fe:e7:c5:5f:e9:44:9f:d1:15:71:c9:
                    de:c1:40:9a:e0:c4:4c:04:20:ed:39:03:f8:fc:4c:
                    ba:5b:f5:48:99:c9:48:b0:47:34:03:81:01:36:c1:
                    db:a8:12:d1:25:cc:60:bd:91:a2:cf:f6:43:dc:dc:
                    82:09:74:80:25:45:67:bb:31:0e:dc:6f:6e:85:15:
                    c9:f4:88:fa:4c:45:9e:d5:90:b1:9f:94:ec:2d:e6:
                    09:3b:82:41:60:0b:ee:92:9c:28:90:e3:ee:b6:b6:
                    dd:fe:fd:8e:fe:12:ba:4b:a9:1c:1f:8b:0c:7d:14:
                    af:fd:f8:bd:86:ab:79:05:0c:7d:1d:6b:96:67:f8:
                    cc:d1:5e:cb:ea:d0:ae:5c:e4:c7:7b:c8:a4:b7:0a:
                    4d:e7:40:94:fa:96:4b:68:c8:3b:72:f6:3b:0d:cf:
                    51:bf:1e:d8:1d:cd:db:b4:f4:12:2a:31:91:bb:e7:
                    b5:25:3d:6a:67:68:ee:40:5b:ad:9b:20:5e:64:ba:
                    cb:76:32:ff:47:30:4e:fc:48:3d:d0:dd:30:f8:02:
                    8a:1f:96:dd:2e:d2:3c:ca:90:78:65:68:d8:df:67:
                    10:50:04:65:c5:14:b1:59:ef:48:fb:87:81:fe:c4:
                    d2:1d:ac:2d:d3:44:5f:26:62:43:54:7c:46:6d:e4:
                    de:bd:7d:a4:f5:68:0d:47:d9:32:d9:be:17:4b:79:
                    3a:c0:7c:82:08:7a:f5:ee:79:6b:9e:4a:6e:03:ea:
                    4c:2a:13:5f:35:c9:ac:94:fb:23:36:de:4d:b4:bb:
                    18:77:db:73:95:4c:eb:33:ce:01:3c:87:18:2e:c4:
                    49:e4:cd:aa:44:e8:26:13:3d:59:9d:db:c4:87:3b:
                    e1:da:31:a6:65:79:42:13:9e:20:cd:dd:26:e7:20:
                    66:a3:e1
                Exponent: 65537 (0x10001)
        X509v3 extensions:
            X509v3 Basic Constraints: 
                CA:FALSE
            Netscape Comment: 
                OpenSSL Generated Certificate
            X509v3 Subject Key Identifier: 
                F6:F8:72:05:F3:7C:EC:D5:D0:83:D2:ED:1D:60:98:82:54:D9:09:56
            X509v3 Authority Key Identifier: 
                keyid:4D:FC:7A:19:F3:2B:0C:7D:F6:C0:7C:4D:F8:72:34:4C:8C:35:52:74

    Signature Algorithm: sha256WithRSAEncryption
         28:17:1b:03:11:ab:8f:62:d2:1a:ce:36:af:25:48:4d:ee:32:
         24:b7:b5:76:95:74:55:7d:fd:18:e4:63:92:c3:08:75:b4:93:
         6a:31:20:f2:ad:7a:b2:21:c6:86:f2:a7:92:01:53:2f:f2:f4:
         dd:56:a5:7a:97:b6:05:01:0e:ca:9e:c2:d1:68:3c:ac:75:4a:
         c9:c4:2f:e3:fb:54:9d:62:27:80:4a:fa:5b:de:03:c3:98:6f:
         f1:1a:cf:29:a0:1b:a2:2b:66:d8:d9:02:86:d4:d9:14:32:9f:
         9b:6c:09:d4:07:b8:a9:03:cb:4e:d8:69:ae:93:76:19:43:19:
         6b:fe:b9:6d:ee:3a:39:4c:37:67:d0:db:bd:69:39:aa:64:fe:
         18:32:3d:af:06:ae:86:1c:41:b6:29:3c:5d:ed:d3:33:a5:0b:
         35:d7:1b:3f:d2:db:ea:ce:6f:83:08:d6:d9:91:cc:d6:56:e6:
         7e:7b:ae:ef:6f:65:47:0f:90:74:41:4d:0f:f0:e6:f8:36:63:
         25:a6:81:27:09:71:40:d1:65:27:3d:be:78:3e:6c:7d:f9:c2:
         09:f1:61:4e:7d:05:34:d7:bb:0c:95:2e:8f:53:23:66:34:4a:
         19:be:79:be:d0:03:68:7b:a7:a5:44:dd:2b:bb:c7:4c:0a:a3:
         f0:2e:cf:01:6b:25:81:b8:19:f3:cf:35:e9:2c:9e:5b:6b:b0:
         9b:47:76:46:19:da:74:17:e6:e3:4d:de:b2:38:7c:35:c7:87:
         d6:62:a6:12:fb:71:bf:f3:ee:54:d3:aa:c2:f7:6b:11:67:e4:
         0e:23:43:2a:9a:93:ea:fa:4d:39:dd:42:62:db:d0:da:70:9f:
         44:eb:ba:e3:e6:76:10:5b:98:b9:17:b9:d0:da:db:73:20:ce:
         2c:d9:28:be:97:82:d5:a9:75:65:88:c5:7c:0e:40:b9:9b:13:
         17:9d:e9:a9:38:9c:7c:11:75:4e:69:c1:ad:63:55:1d:7c:ec:
         35:38:e7:13:46:ca:2e:7b:99:09:1f:5b:fd:62:68:c5:4f:24:
         20:db:b3:bc:56:e7:23:91:40:d0:47:90:1c:ca:f7:d9:26:24:
         20:69:f4:41:7c:83:dc:c2:4c:ee:86:8d:6d:b9:63:01:5d:15:
         85:8b:e9:e3:d8:0a:4b:0c:14:9f:87:a5:45:3a:b8:3c:57:80:
         89:18:c4:7e:d7:c3:73:63:f2:af:eb:49:ec:bb:fc:44:c7:5e:
         c8:09:35:20:3e:cc:8b:25:18:ec:98:fc:65:97:a7:ba:9d:af:
         59:7d:81:24:b8:27:dc:52:80:75:39:3a:6f:a0:50:50:fe:e1:
         da:b9:ec:1c:43:f1:db:ad
-----BEGIN CERTIFICATE-----
MIIFojCCA4qgAwIBAgIBBTANBgkqhkiG9w0BAQsFADBWMQ8wDQYDVQQDDAZjYWNl
cnQxCzAJBgNVBAYTAkZJMREwDwYDVQQIDAhIZWxzaW5raTERMA8GA1UEBwwISGVs
c2lua2kxEDAOBgNVBAoMB01hcmlhREIwHhcNMjAwMzAzMDMwMzAzWhcNNDAwMjI3
MDMwMzAzWjBWMQswCQYDVQQGEwJGSTERMA8GA1UECAwISGVsc2lua2kxETAPBgNV
BAcMCEhlbHNpbmtpMRAwDgYDVQQKDAdNYXJpYURCMQ8wDQYDVQQDDAZjbGllbnQw
ggIiMA0GCSqGSIb3DQEBAQUAA4ICDwAwggIKAoICAQDmaYkosJIyCQts1Q0yrooI
GTmDrSZ7M+Kjovf5rk/Nq1h1jWajDfRDqd5OBANwAQv86wShFHZhjSVcFWXd8qbP
I27Wn9gM0cxefowr3kO2G1n+8Xx2Ca1EJiphsdFtteoRL9oAeTBspzo6W62m2ylR
zx/I1BRXMUhuLNeTvMUuwKNtek6sRlf1eh9c58O4idliigUM2IiUp3nscciqANay
0aOcBLfQbPD+58Vf6USf0RVxyd7BQJrgxEwEIO05A/j8TLpb9UiZyUiwRzQDgQE2
wduoEtElzGC9kaLP9kPc3IIJdIAlRWe7MQ7cb26FFcn0iPpMRZ7VkLGflOwt5gk7
gkFgC+6SnCiQ4+62tt3+/Y7+ErpLqRwfiwx9FK/9+L2Gq3kFDH0da5Zn+MzRXsvq
0K5c5Md7yKS3Ck3nQJT6lktoyDty9jsNz1G/Htgdzdu09BIqMZG757UlPWpnaO5A
W62bIF5kust2Mv9HME78SD3Q3TD4Aooflt0u0jzKkHhlaNjfZxBQBGXFFLFZ70j7
h4H+xNIdrC3TRF8mYkNUfEZt5N69faT1aA1H2TLZvhdLeTrAfIIIevXueWueSm4D
6kwqE181yayU+yM23k20uxh323OVTOszzgE8hxguxEnkzapE6CYTPVmd28SHO+Ha
MaZleUITniDN3SbnIGaj4QIDAQABo3sweTAJBgNVHRMEAjAAMCwGCWCGSAGG+EIB
DQQfFh1PcGVuU1NMIEdlbmVyYXRlZCBDZXJ0aWZpY2F0ZTAdBgNVHQ4EFgQU9vhy
BfN87NXQg9LtHWCYglTZCVYwHwYDVR0jBBgwFoAUTfx6GfMrDH32wHxN+HI0TIw1
UnQwDQYJKoZIhvcNAQELBQADggIBACgXGwMRq49i0hrONq8lSE3uMiS3tXaVdFV9
/RjkY5LDCHW0k2oxIPKterIhxobyp5IBUy/y9N1WpXqXtgUBDsqewtFoPKx1SsnE
L+P7VJ1iJ4BK+lveA8OYb/EazymgG6IrZtjZAobU2RQyn5tsCdQHuKkDy07Yaa6T
dhlDGWv+uW3uOjlMN2fQ271pOapk/hgyPa8GroYcQbYpPF3t0zOlCzXXGz/S2+rO
b4MI1tmRzNZW5n57ru9vZUcPkHRBTQ/w5vg2YyWmgScJcUDRZSc9vng+bH35wgnx
YU59BTTXuwyVLo9TI2Y0Shm+eb7QA2h7p6VE3Su7x0wKo/AuzwFrJYG4GfPPNeks
nltrsJtHdkYZ2nQX5uNN3rI4fDXHh9ZiphL7cb/z7lTTqsL3axFn5A4jQyqak+r6
TTndQmLb0Npwn0TruuPmdhBbmLkXudDa23MgzizZKL6XgtWpdWWIxXwOQLmbExed
6ak4nHwRdU5pwa1jVR187DU45xNGyi57mQkfW/1iaMVPJCDbs7xW5yORQNBHkBzK
99kmJCBp9EF8g9zCTO6GjW25YwFdFYWL6ePYCksMFJ+HpUU6uDxXgIkYxH7Xw3Nj
8q/rSey7/ETHXsgJNSA+zIslGOyY/GWXp7qdr1l9gSS4J9xSgHU5Om+gUFD+4dq5
7BxD8dut
-----END CERTIFICATE-----
-----BEGIN RSA PRIVATE KEY-----
MIIJKAIBAAKCAgEA5mmJKLCSMgkLbNUNMq6KCBk5g60mezPio6L3+a5PzatYdY1m
ow30Q6neTgQDcAEL/OsEoRR2YY0lXBVl3fKmzyNu1p/YDNHMXn6MK95DthtZ/vF8
dgmtRCYqYbHRbbXqES/aAHkwbKc6OlutptspUc8fyNQUVzFIbizXk7zFLsCjbXpO
rEZX9XofXOfDuInZYooFDNiIlKd57HHIqgDWstGjnAS30Gzw/ufFX+lEn9EVccne
wUCa4MRMBCDtOQP4/Ey6W/VImclIsEc0A4EBNsHbqBLRJcxgvZGiz/ZD3NyCCXSA
JUVnuzEO3G9uhRXJ9Ij6TEWe1ZCxn5TsLeYJO4JBYAvukpwokOPutrbd/v2O/hK6
S6kcH4sMfRSv/fi9hqt5BQx9HWuWZ/jM0V7L6tCuXOTHe8iktwpN50CU+pZLaMg7
cvY7Dc9Rvx7YHc3btPQSKjGRu+e1JT1qZ2juQFutmyBeZLrLdjL/RzBO/Eg90N0w
+AKKH5bdLtI8ypB4ZWjY32cQUARlxRSxWe9I+4eB/sTSHawt00RfJmJDVHxGbeTe
vX2k9WgNR9ky2b4XS3k6wHyCCHr17nlrnkpuA+pMKhNfNcmslPsjNt5NtLsYd9tz
lUzrM84BPIcYLsRJ5M2qROgmEz1ZndvEhzvh2jGmZXlCE54gzd0m5yBmo+ECAwEA
AQKCAgBkjeAu4sgaj/nteBk3ahaRLDj+bz1g/SbGlSO1Uk4/iqyjOJ93P2q/cM20
rGm3oq1Rplsx1RVIw2lvg2Mednw339XKUp3eEl0nTADuUCSqv8sJyOexN83m9OUA
F7M3NvG8qG5yUHFCqcRunX3uWKzyp/rOEUgDOV3Lv0QhlHtVSPrJl1voMRbH6ZDw
YbD3wykcqPFFRuZsQZ6jApE5J/6KsZS+TQzPKAwQoqNvlQS+3meGbjwJiKFOwDwQ
fTIp9MLfkLiv0x7pBn/zdk+Ly+v0squi8PtXjJcXhAxSx72cEJurdq1KFr0LY4CB
0Ruhdv3Y+0KIsMV9nJT3+O0NptuVya+LuMsVcld6c/Ux650baqrpdqQ7BC+q3fHc
IT5G94mO1oTk03Ki50cEuZ861VuGLswivS4e/cdOQEtMRgNL4eeFk0FYDw1EMEYJ
yylX0FhkUphgqm/yZqv1k6vzGh56H/aFDiEcCF57bycEP6CGFugRb+/2AxI3p8ax
A77wyTcmuptnPJ6efpYseUyYcJu0WpO4+WIhS+o4dOgbN/J91A7EORKmBiMnPtvg
e8dkBijTIDV4WyDudjKqSTwIZkmdUFaoGmmdw1H3jcaTAbBt7Pf9EwrVOKSyIPP0
oFmWkiCHN4h9VpDGpEp/n+usqovj6dqfe/8Kq7ZqwtJiyfxXMQKCAQEA/l9jXIqt
FcbSvddGv1gfiGsRGUU6J2GGgkFAlBlUidWrVxn8XjhHEptm9rgamxRypUQIjl4D
nkGBBlwzPVYv2ERk1uCs0iBkS0LSH1WcS7zHR0DH+fPS+V+S99O5Yq1LN5TMY4ao
YG1MRxM7cz29HBkSwvmF26AFOfhuotItEB43RiLxQUVknKepcItwoADFVBFRBX1I
uQTNkXuSqtll8mR5uVXEfgyyTlLy8vHOf0q6z6pd9yBw6yWq/91h0CWUe2hDsrz9
CMpXOSNrRXeDGjmPfdvAQ/vofZ84HqwYgdX1P4Fgdn40XTlLn7+0SEaMjHmJ6cVp
MfXp9CJ4636thQKCAQEA5+Lnw6N2amcI1G/oVELioxlzv+pu+b5CFyKqnQMtvqJX
jBU/+a8ESJVb/t41dPlOYno4nUIhHt2DeolXah60Ws4Mcq869mYWfsQyCtKB/pHr
5ycMf2oGH20C2Tns4oRofDYMqXjLOY8LpP4NF+Ix/jvZrfjF92bjPD9DLyzZs9+O
PebdhqHH7DUgGC0FRRzdGAX7Im7YdUgKzLBcGuUWRBjtPBPAwQAtPiEgtfUAD5gh
Dio5nF04AvIaGvz8qj2pg9E70hGhQ0fObky6lE3AlgOmapKOzZwpa7MkOZuiS+CK
eV6rZoLUop/etmZK06patOWZCsLAwb6nWzo1wo8trQKCAQEA1r9xAw+QUHIqOFsm
PyQGewToyozHK7gJ9q1f96fq1vKsVDx78o9QcUUBCAklbQc2Qo/NKWP1agWjB9uO
5pl8ivgyqbXEMSFniqI/AnUkHkyhcGYgbcSKuD0XtmHogIYMmj/kzaFBRScA3oA+
EGxu2unQDQrbFy9hOi+iN5N4t8LKp0uYoaIT7q0dPwZ5bps3/GEiJaA/ZPPJGKla
iSJADwMEQJNH76KIZddhg/jgfFZ6oBcUfS3GJr8GPjyH91HCqOy9OoiSlnk8aeCd
D2h2Jg2yNm7vQnXJMUTZ/AsOJY6cHaD77w1c59cXISaW7O2ienWhGNqwlJ0nhhQU
QbwQgQKCAQBkBO9K53rwMjkQyKRBlAgFqbjPkuMDPhlruTw2NWTJ0WRJu/C4VdFX
LXVc3aPZLJ+uwmEhE6ENmyZW+F6IG25XrICaBxM7rJUPYLjlCh+gGnjSX3l4i9bQ
P0j3QZD3s30N9pJHlx6xWQ4AwMQNBTfjHRWrgJ6DNBHXrsHf20yb1VWZRbdPlwCQ
1eleBC09vlFvR0UneQBMtiJSX8+ami2cedP6EdsWZGkfX1KoqWC5WTkIzxXCaEL8
oki4U174X1h6zwkqdwhD6PkVgmsIBPGIw1JIraaC8VS8a6y4XHUInXWdHER6Fvx4
mNSLgFvOKLCvTklQ5ugVqZKuOtFtdiyRAoIBAB4OaDQlqmPm+IPpvltf7tM3ZYut
tqyFbL2YguRn6Dtl+slZWnv9hwj5RoPnCy66exAqU9PuMRefpzA52HOSToDuPZIF
NyUH9WABJkRXyU+qCzN/BbrdU+XiVQK9+F2uw3K6i1tCPCppww9GrKYgeaJlB4TT
cQDaXdXk+/UX2Ejhs8KRDfnBHkhpbSeY18Dt+nqsAmfMGyAw2iehDH7LbbWxGeHG
8DdeAjWR7zqDeBVzay+1i/wSxr1oKVY6vODqbfU0qbEGyqTAQUuAPYy+51lfk6PK
pnXdg1T/X4mM/hsTZJP7qjDsBa2gDX9rpOwfI3WcAhrrEgsa5oK//y749RI=
-----END RSA PRIVATE KEY-----
