Certificate:
    Data:
        Version: 3 (0x2)
        Serial Number: 5 (0x5)
        Signature Algorithm: RSA-SHA3-512
        Issuer: CN=cacert, C=FI, ST=Helsinki, L=Helsinki, O=MariaDB
        Validity
            Not Before: Jun 24 03:07:27 2025 GMT
            Not After : Jun 19 03:07:27 2045 GMT
        Subject: C=FI, ST=Helsinki, L=Helsinki, O=MariaDB, CN=client
        Subject Public Key Info:
            Public Key Algorithm: rsaEncryption
                Public-Key: (4096 bit)
                Modulus:
                    00:e8:ae:8d:95:4a:35:0e:82:e2:8a:64:b2:eb:fd:
                    0c:15:c6:13:9a:b9:c9:6f:90:05:6d:a8:6b:a7:8e:
                    b1:51:ac:3f:04:92:0c:4b:21:32:5a:07:6f:23:2a:
                    c2:4a:ce:98:f1:3d:13:14:58:6c:fe:12:e6:49:c2:
                    3b:6d:b7:ae:e4:ad:d7:e5:35:f1:ce:7e:b8:86:8f:
                    72:ad:00:8c:f4:c5:ce:fa:07:b5:11:62:3f:b2:b0:
                    d3:02:cf:0b:fa:32:16:e5:86:0b:d4:94:66:b3:1b:
                    26:15:6c:8c:69:c6:84:6f:5f:1f:79:a1:2f:cf:7a:
                    fe:d0:a0:b1:7c:12:fa:7c:fd:ef:76:a7:71:c0:71:
                    35:f6:fb:cb:d8:87:f2:c3:90:08:c1:98:cb:d6:47:
                    0a:06:c2:ff:f4:46:d6:1c:12:87:c7:bd:1e:83:31:
                    be:ef:b8:7f:75:81:84:b1:18:42:49:c4:94:ce:33:
                    f4:2f:07:82:ea:ba:2d:2f:a1:4b:b5:dc:d0:64:9e:
                    7e:f2:46:a4:06:86:fc:b7:65:3d:18:34:6f:d0:c6:
                    86:ed:05:19:84:c6:0e:78:bd:75:b2:02:b7:ab:aa:
                    3a:ea:ad:ac:74:47:e2:87:db:66:c6:9e:a3:1f:8f:
                    07:d1:d6:0b:26:90:d8:55:22:e2:90:70:87:00:6c:
                    82:47:ac:d9:53:e4:a8:4b:f5:9b:1b:dd:96:9d:d5:
                    6c:15:d6:76:0e:17:d0:0f:f1:66:31:b3:14:6e:c8:
                    59:3d:46:65:33:8f:1f:88:76:ac:a9:af:82:59:f9:
                    52:0c:f5:b8:24:33:c1:fb:f8:8e:a8:32:56:5c:51:
                    39:63:06:b2:90:e7:4f:bf:0d:df:1c:1e:36:87:ae:
                    41:ca:79:49:37:37:0f:bc:d4:53:f3:85:68:a8:98:
                    cf:48:e1:3d:87:fe:40:f9:e8:39:b5:7e:1c:2b:cc:
                    63:97:08:2b:4f:15:42:17:8a:20:37:69:f2:a4:d5:
                    f1:93:ef:ef:9e:86:ea:33:6b:69:bf:d9:34:a7:8b:
                    51:97:8d:b9:c3:19:19:30:ca:23:3f:8f:2a:bb:cd:
                    b2:42:a0:0d:0a:c1:37:63:49:44:f4:1f:4c:52:90:
                    82:bf:56:6a:b8:9b:e7:a6:10:2b:78:6c:8e:34:9e:
                    5f:d4:1d:0e:84:25:c8:86:e5:9e:d5:55:2c:2f:16:
                    68:6f:84:62:da:9f:79:49:b6:ec:d2:26:d4:99:4b:
                    2d:9e:05:5e:3b:54:74:27:01:79:c2:d8:ff:c3:c1:
                    90:91:cc:27:6f:cf:61:0e:f8:a5:8d:1f:d3:54:4d:
                    ab:f1:9a:db:17:49:3b:87:ff:50:05:43:7e:f8:41:
                    2f:f2:ad
                Exponent: 65537 (0x10001)
        X509v3 extensions:
            X509v3 Basic Constraints: 
                CA:FALSE
            X509v3 Subject Key Identifier: 
                99:0D:D2:58:2F:E1:E0:DE:8E:15:44:87:A2:F0:F7:E0:8D:AE:97:93
            X509v3 Authority Key Identifier: 
                7F:89:8E:FD:E7:90:99:31:8C:2B:94:FE:94:67:67:16:13:9B:61:96
    Signature Algorithm: RSA-SHA3-512
    Signature Value:
        11:79:35:62:f3:4c:2a:19:53:13:0f:cb:c0:b9:06:d0:a2:dc:
        c5:54:00:0c:ba:dd:07:47:49:0c:4d:92:92:11:30:45:a8:f7:
        92:9c:52:03:8e:29:b7:c5:1c:e7:d1:58:7a:d5:6b:52:a7:ef:
        1d:a5:f0:69:ba:aa:7d:54:83:0b:cb:b5:9c:46:43:fc:6f:bc:
        43:e6:48:be:e3:ed:ad:f8:31:10:7e:8d:b4:16:27:a9:77:82:
        31:b0:68:ad:f6:39:99:9d:7d:18:67:10:29:c1:ae:fb:1f:6d:
        73:74:39:a9:4e:35:a5:e1:ac:1b:01:0d:5e:cd:df:cd:29:84:
        8b:6c:b8:48:4a:2d:ca:0c:33:33:d7:f4:66:d0:9e:bc:c5:0a:
        79:a0:7a:f9:ea:7e:4e:38:9d:38:42:ce:2c:59:29:5a:6a:85:
        a8:ea:4a:73:60:ec:06:3d:85:63:91:42:c9:b4:cb:5d:1a:d7:
        90:cf:8e:e0:53:ea:25:41:bb:5b:7b:5e:3a:76:ff:0d:b4:a0:
        30:2c:e4:54:d2:7a:b0:c1:d1:8d:ed:3c:84:66:55:aa:3e:0e:
        f8:a3:84:5b:1f:38:ce:1d:fa:dc:c2:22:98:46:d0:9e:82:02:
        bd:63:73:33:35:1b:bb:84:5b:cb:f7:ec:1a:f2:3e:45:49:8d:
        d2:db:39:8d:5a:63:a6:22:08:6b:d2:f6:f4:d7:b8:9c:f9:71:
        fb:f9:3e:f3:e7:3d:6f:05:6a:5a:f8:e2:75:9c:27:b3:0f:91:
        dd:06:87:b3:a0:a1:42:cb:36:d8:c5:9c:6d:97:36:0b:3d:ca:
        0b:14:6b:2e:83:b7:98:76:a9:a2:9e:dc:24:9d:b7:cf:c7:0d:
        5e:bb:59:3c:0d:c3:89:8d:d7:a9:b9:a4:20:ee:50:f7:33:2f:
        1b:d2:2c:4a:f8:25:a6:fd:99:55:16:91:14:72:3c:0f:0c:a7:
        22:dc:30:7c:0d:84:60:20:7d:ba:a5:c3:a6:f6:26:ca:8d:c7:
        4e:30:c9:10:89:d8:62:a0:03:b4:de:29:5d:b0:45:20:44:c8:
        37:a3:2a:dd:8f:75:49:16:88:d3:a6:50:80:3f:98:1f:19:35:
        f3:e1:66:0c:90:6b:7f:d5:3c:c2:f8:b0:cb:e3:d3:4f:ea:25:
        fd:ce:b6:63:03:b6:3e:55:f0:2c:5d:7b:f7:f2:3b:29:02:b0:
        f3:b8:de:72:75:03:9b:83:32:0b:51:60:11:7b:fa:0b:38:af:
        98:0c:eb:72:4d:ef:55:44:57:81:1f:9d:0a:de:e5:55:76:c4:
        f6:4f:07:c6:b2:c4:ff:b6:d1:e2:e4:a6:9e:73:0a:33:e7:c5:
        24:d3:2a:ee:aa:d7:4f:67
-----BEGIN CERTIFICATE-----
MIIFdDCCA1ygAwIBAgIBBTANBglghkgBZQMEAxAFADBWMQ8wDQYDVQQDDAZjYWNl
cnQxCzAJBgNVBAYTAkZJMREwDwYDVQQIDAhIZWxzaW5raTERMA8GA1UEBwwISGVs
c2lua2kxEDAOBgNVBAoMB01hcmlhREIwHhcNMjUwNjI0MDMwNzI3WhcNNDUwNjE5
MDMwNzI3WjBWMQswCQYDVQQGEwJGSTERMA8GA1UECAwISGVsc2lua2kxETAPBgNV
BAcMCEhlbHNpbmtpMRAwDgYDVQQKDAdNYXJpYURCMQ8wDQYDVQQDDAZjbGllbnQw
ggIiMA0GCSqGSIb3DQEBAQUAA4ICDwAwggIKAoICAQDoro2VSjUOguKKZLLr/QwV
xhOauclvkAVtqGunjrFRrD8EkgxLITJaB28jKsJKzpjxPRMUWGz+EuZJwjttt67k
rdflNfHOfriGj3KtAIz0xc76B7URYj+ysNMCzwv6MhblhgvUlGazGyYVbIxpxoRv
Xx95oS/Pev7QoLF8Evp8/e92p3HAcTX2+8vYh/LDkAjBmMvWRwoGwv/0RtYcEofH
vR6DMb7vuH91gYSxGEJJxJTOM/QvB4Lqui0voUu13NBknn7yRqQGhvy3ZT0YNG/Q
xobtBRmExg54vXWyArerqjrqrax0R+KH22bGnqMfjwfR1gsmkNhVIuKQcIcAbIJH
rNlT5KhL9Zsb3Zad1WwV1nYOF9AP8WYxsxRuyFk9RmUzjx+Idqypr4JZ+VIM9bgk
M8H7+I6oMlZcUTljBrKQ50+/Dd8cHjaHrkHKeUk3Nw+81FPzhWiomM9I4T2H/kD5
6Dm1fhwrzGOXCCtPFUIXiiA3afKk1fGT7++ehuoza2m/2TSni1GXjbnDGRkwyiM/
jyq7zbJCoA0KwTdjSUT0H0xSkIK/Vmq4m+emECt4bI40nl/UHQ6EJciG5Z7VVSwv
FmhvhGLan3lJtuzSJtSZSy2eBV47VHQnAXnC2P/DwZCRzCdvz2EO+KWNH9NUTavx
mtsXSTuH/1AFQ374QS/yrQIDAQABo00wSzAJBgNVHRMEAjAAMB0GA1UdDgQWBBSZ
DdJYL+Hg3o4VRIei8Pfgja6XkzAfBgNVHSMEGDAWgBR/iY7955CZMYwrlP6UZ2cW
E5thljANBglghkgBZQMEAxAFAAOCAgEAEXk1YvNMKhlTEw/LwLkG0KLcxVQADLrd
B0dJDE2SkhEwRaj3kpxSA44pt8Uc59FYetVrUqfvHaXwabqqfVSDC8u1nEZD/G+8
Q+ZIvuPtrfgxEH6NtBYnqXeCMbBorfY5mZ19GGcQKcGu+x9tc3Q5qU41peGsGwEN
Xs3fzSmEi2y4SEotygwzM9f0ZtCevMUKeaB6+ep+TjidOELOLFkpWmqFqOpKc2Ds
Bj2FY5FCybTLXRrXkM+O4FPqJUG7W3teOnb/DbSgMCzkVNJ6sMHRje08hGZVqj4O
+KOEWx84zh363MIimEbQnoICvWNzMzUbu4Rby/fsGvI+RUmN0ts5jVpjpiIIa9L2
9Ne4nPlx+/k+8+c9bwVqWvjidZwnsw+R3QaHs6ChQss22MWcbZc2Cz3KCxRrLoO3
mHapop7cJJ23z8cNXrtZPA3DiY3XqbmkIO5Q9zMvG9IsSvglpv2ZVRaRFHI8Dwyn
ItwwfA2EYCB9uqXDpvYmyo3HTjDJEInYYqADtN4pXbBFIETIN6Mq3Y91SRaI06ZQ
gD+YHxk18+FmDJBrf9U8wviwy+PTT+ol/c62YwO2PlXwLF179/I7KQKw87jecnUD
m4MyC1FgEXv6CzivmAzrck3vVURXgR+dCt7lVXbE9k8HxrLE/7bR4uSmnnMKM+fF
JNMq7qrXT2c=
-----END CERTIFICATE-----
