Certificate:
    Data:
        Version: 3 (0x2)
        Serial Number: 5 (0x5)
        Signature Algorithm: RSA-SHA3-512
        Issuer: CN=cacert, C=FI, ST=Helsinki, L=Helsinki, O=MariaDB
        Validity
            Not Before: Jun 27 00:47:57 2024 GMT
            Not After : Jun 22 00:47:57 2044 GMT
        Subject: C=FI, ST=Helsinki, L=Helsinki, O=MariaDB, CN=client
        Subject Public Key Info:
            Public Key Algorithm: rsaEncryption
                Public-Key: (2048 bit)
                Modulus:
                    00:c5:33:9a:de:c9:9c:fe:30:c6:6e:8e:de:35:11:
                    bd:8f:02:34:ae:1d:4b:d2:fe:be:94:ad:65:3f:c3:
                    c0:ff:e5:1c:ea:06:83:6d:ec:2e:22:54:fb:9b:ab:
                    51:4b:a0:d7:fa:19:56:c5:53:4d:62:b2:25:ea:15:
                    f7:c5:1c:f8:bd:49:44:20:05:22:d5:b6:37:3b:f8:
                    08:7c:5b:42:80:b1:9a:dc:ae:f7:d2:48:04:85:94:
                    97:48:70:7e:6b:a6:eb:f4:58:95:c5:be:53:c4:57:
                    c0:70:a2:c8:52:9b:2a:ea:41:a7:89:4d:25:11:5e:
                    66:e3:cb:2b:03:45:7a:3e:aa:60:9d:73:f6:d9:0d:
                    6e:c4:3f:3e:a4:ef:73:e4:ea:b1:d8:63:93:ca:29:
                    5d:eb:ad:c5:66:df:02:d6:6b:1f:b2:51:b6:1d:e8:
                    cf:4d:69:23:cd:57:b6:fb:7d:c7:b1:ee:c8:d0:cd:
                    8b:2b:d8:46:57:e3:a3:f4:71:1c:64:9e:df:92:b5:
                    ce:80:58:8e:9b:8b:a0:2d:6c:64:b9:38:00:74:d1:
                    29:a5:7c:75:31:26:27:72:47:5f:c5:9b:79:17:33:
                    d2:79:d1:69:6f:6f:65:54:28:92:b7:3e:6f:b6:9c:
                    fc:35:68:b8:4f:c6:08:e2:ff:bc:73:0d:c9:b5:01:
                    3f:95
                Exponent: 65537 (0x10001)
        X509v3 extensions:
            X509v3 Basic Constraints: 
                CA:FALSE
            X509v3 Subject Key Identifier: 
                30:60:65:60:B3:05:48:9C:A3:52:C1:2E:78:A6:67:12:73:E1:C1:60
            X509v3 Authority Key Identifier: 
                AE:15:21:04:AE:31:34:9B:14:11:EC:6B:9B:9B:45:6E:57:09:61:EC
    Signature Algorithm: RSA-SHA3-512
    Signature Value:
        7a:5d:17:fc:1e:e7:bc:35:e5:e7:f1:36:da:ac:6d:83:b3:f4:
        2b:fe:7b:18:e0:7f:1a:c3:db:59:06:95:c0:63:52:86:a7:03:
        69:16:6f:42:1e:f1:57:f8:79:a4:ea:a5:f7:2d:61:d2:ee:41:
        0d:1a:1e:6a:eb:2c:44:b5:40:5a:46:68:15:1b:ff:e8:fb:66:
        e0:4e:79:31:49:8a:b6:fa:d4:66:76:75:e3:c6:8d:9e:99:62:
        f0:6a:9b:5e:2c:13:70:43:b7:e6:59:dd:37:d3:fe:36:cc:11:
        2e:31:72:8e:15:85:35:9e:9e:d6:cf:09:17:2a:8a:fb:6c:bb:
        b5:ed:7b:ba:be:c0:ec:e8:9a:68:53:2c:16:f4:25:9c:4a:85:
        9d:c3:12:cc:f9:4d:1c:35:9a:44:99:86:fe:b6:ab:d6:b8:6b:
        a0:17:b0:51:9a:12:b1:b5:4f:53:09:d0:c3:1e:88:14:35:60:
        21:f9:70:6d:69:61:ca:bb:b3:20:12:27:db:62:90:29:76:6a:
        44:0a:f7:09:6f:3b:3f:16:5a:32:9b:c6:91:8e:f5:2d:8b:47:
        4c:77:c5:1b:35:45:51:53:e0:e5:e7:2a:d6:a0:e2:d3:84:7d:
        80:e8:7c:3b:10:0b:09:38:3d:a5:5f:34:ca:ab:c4:39:a9:b1:
        56:b1:9e:60
-----BEGIN CERTIFICATE-----
MIIDdDCCAlygAwIBAgIBBTANBglghkgBZQMEAxAFADBWMQ8wDQYDVQQDDAZjYWNl
cnQxCzAJBgNVBAYTAkZJMREwDwYDVQQIDAhIZWxzaW5raTERMA8GA1UEBwwISGVs
c2lua2kxEDAOBgNVBAoMB01hcmlhREIwHhcNMjQwNjI3MDA0NzU3WhcNNDQwNjIy
MDA0NzU3WjBWMQswCQYDVQQGEwJGSTERMA8GA1UECAwISGVsc2lua2kxETAPBgNV
BAcMCEhlbHNpbmtpMRAwDgYDVQQKDAdNYXJpYURCMQ8wDQYDVQQDDAZjbGllbnQw
ggEiMA0GCSqGSIb3DQEBAQUAA4IBDwAwggEKAoIBAQDFM5reyZz+MMZujt41Eb2P
AjSuHUvS/r6UrWU/w8D/5RzqBoNt7C4iVPubq1FLoNf6GVbFU01isiXqFffFHPi9
SUQgBSLVtjc7+Ah8W0KAsZrcrvfSSASFlJdIcH5rpuv0WJXFvlPEV8BwoshSmyrq
QaeJTSURXmbjyysDRXo+qmCdc/bZDW7EPz6k73Pk6rHYY5PKKV3rrcVm3wLWax+y
UbYd6M9NaSPNV7b7fcex7sjQzYsr2EZX46P0cRxknt+Stc6AWI6bi6AtbGS5OAB0
0SmlfHUxJidyR1/Fm3kXM9J50Wlvb2VUKJK3Pm+2nPw1aLhPxgji/7xzDcm1AT+V
AgMBAAGjTTBLMAkGA1UdEwQCMAAwHQYDVR0OBBYEFDBgZWCzBUico1LBLnimZxJz
4cFgMB8GA1UdIwQYMBaAFK4VIQSuMTSbFBHsa5ubRW5XCWHsMA0GCWCGSAFlAwQD
EAUAA4IBAQB6XRf8Hue8NeXn8TbarG2Ds/Qr/nsY4H8aw9tZBpXAY1KGpwNpFm9C
HvFX+Hmk6qX3LWHS7kENGh5q6yxEtUBaRmgVG//o+2bgTnkxSYq2+tRmdnXjxo2e
mWLwapteLBNwQ7fmWd030/42zBEuMXKOFYU1np7WzwkXKor7bLu17Xu6vsDs6Jpo
UywW9CWcSoWdwxLM+U0cNZpEmYb+tqvWuGugF7BRmhKxtU9TCdDDHogUNWAh+XBt
aWHKu7MgEifbYpApdmpECvcJbzs/Floym8aRjvUti0dMd8UbNUVRU+Dl5yrWoOLT
hH2A6Hw7EAsJOD2lXzTKq8Q5qbFWsZ5g
-----END CERTIFICATE-----
