Certificate:
    Data:
        Version: 3 (0x2)
        Serial Number: 3 (0x3)
    Signature Algorithm: sha256WithRSAEncryption
        Issuer: CN=cacert, C=FI, ST=Helsinki, L=Helsinki, O=MariaDB
        Validity
            Not Before: Apr 24 14:29:50 2019 GMT
            Not After : Apr 19 14:29:50 2039 GMT
        Subject: C=FI, ST=Helsinki, L=Helsinki, O=MariaDB, CN=client
        Subject Public Key Info:
            Public Key Algorithm: rsaEncryption
                Public-Key: (1024 bit)
                Modulus:
                    00:ab:9b:08:e8:ee:c3:21:9e:b5:dc:3e:03:b2:4e:
                    d5:45:58:7f:dd:95:a1:d9:b1:86:c5:1b:c5:d6:66:
                    52:73:2c:d4:eb:53:80:0c:02:1d:8b:40:43:b1:e9:
                    db:a1:87:d7:61:f2:35:b0:4f:bf:1b:20:87:60:6f:
                    4f:0a:df:8e:1b:32:fb:69:d3:be:24:20:77:be:cf:
                    f6:4f:23:fc:2c:f4:12:a1:b9:54:7e:74:e2:21:7f:
                    03:e5:03:a3:17:a6:eb:c5:1b:38:3f:35:9d:b9:67:
                    73:d3:80:c5:61:f4:8d:48:2e:cf:f0:aa:59:36:7c:
                    4f:f6:37:f4:b7:7d:fe:1d:87
                Exponent: 65537 (0x10001)
        X509v3 extensions:
            X509v3 Basic Constraints: 
                CA:FALSE
            Netscape Comment: 
                OpenSSL Generated Certificate
            X509v3 Subject Key Identifier: 
                53:3C:D1:92:1E:19:3C:32:DA:BF:5E:2E:11:E8:17:A8:1C:77:27:DE
            X509v3 Authority Key Identifier: 
                keyid:F3:1D:A0:5F:69:33:8A:A4:B4:76:97:A2:6E:AB:FD:A0:BF:F3:2C:CE

    Signature Algorithm: sha256WithRSAEncryption
         8d:f9:38:ab:6e:7b:b5:91:80:f0:51:8f:0c:67:b9:39:64:c1:
         5e:e6:da:2b:f6:7c:8d:37:13:d4:47:a3:2f:be:04:53:da:b0:
         dc:d1:35:88:ee:3f:52:be:17:ea:ae:ec:2b:cd:e3:cd:6b:8f:
         09:e5:c2:aa:9b:50:aa:ea:63:ea:74:97:b5:ab:c9:27:6c:1d:
         8a:80:a0:49:7b:0f:6e:77:92:6c:db:0c:a8:c0:5d:c3:6a:54:
         24:52:6d:87:22:49:67:68:89:16:35:bc:eb:94:59:f7:2a:55:
         dd:50:ca:ee:c8:72:4d:03:92:e3:10:46:d5:20:80:09:cd:db:
         fd:c8:b2:de:4f:1f:c9:96:8f:d1:cf:81:99:d2:ab:b9:c5:27:
         e0:40:e8:76:e9:a4:4d:c9:03:0b:be:d5:f1:f4:42:ce:2c:83:
         6e:3e:80:bd:cb:59:36:4d:34:47:08:91:a8:e1:23:f5:e0:af:
         89:ae:1a:74:3e:ea:82:19:07:ef:3c:d6:3f:cf:5c:75:5e:57:
         c7:32:17:b1:16:36:7c:7b:a7:45:aa:de:e1:b8:c1:a2:05:1a:
         e4:30:51:a3:af:9e:ac:a0:8a:fc:fd:9d:b3:a9:ae:25:62:91:
         cb:ee:e7:bc:fc:9c:3c:e9:15:ee:a2:6f:f5:f1:fd:6e:59:a9:
         41:0b:c6:7d
-----BEGIN CERTIFICATE-----
MIIDHjCCAgagAwIBAgIBAzANBgkqhkiG9w0BAQsFADBWMQ8wDQYDVQQDDAZjYWNl
cnQxCzAJBgNVBAYTAkZJMREwDwYDVQQIDAhIZWxzaW5raTERMA8GA1UEBwwISGVs
c2lua2kxEDAOBgNVBAoMB01hcmlhREIwHhcNMTkwNDI0MTQyOTUwWhcNMzkwNDE5
MTQyOTUwWjBWMQswCQYDVQQGEwJGSTERMA8GA1UECAwISGVsc2lua2kxETAPBgNV
BAcMCEhlbHNpbmtpMRAwDgYDVQQKDAdNYXJpYURCMQ8wDQYDVQQDDAZjbGllbnQw
gZ8wDQYJKoZIhvcNAQEBBQADgY0AMIGJAoGBAKubCOjuwyGetdw+A7JO1UVYf92V
odmxhsUbxdZmUnMs1OtTgAwCHYtAQ7Hp26GH12HyNbBPvxsgh2BvTwrfjhsy+2nT
viQgd77P9k8j/Cz0EqG5VH504iF/A+UDoxem68UbOD81nblnc9OAxWH0jUguz/Cq
WTZ8T/Y39Ld9/h2HAgMBAAGjezB5MAkGA1UdEwQCMAAwLAYJYIZIAYb4QgENBB8W
HU9wZW5TU0wgR2VuZXJhdGVkIENlcnRpZmljYXRlMB0GA1UdDgQWBBRTPNGSHhk8
Mtq/Xi4R6BeoHHcn3jAfBgNVHSMEGDAWgBTzHaBfaTOKpLR2l6Juq/2gv/MszjAN
BgkqhkiG9w0BAQsFAAOCAQEAjfk4q257tZGA8FGPDGe5OWTBXubaK/Z8jTcT1Eej
L74EU9qw3NE1iO4/Ur4X6q7sK83jzWuPCeXCqptQqupj6nSXtavJJ2wdioCgSXsP
bneSbNsMqMBdw2pUJFJthyJJZ2iJFjW865RZ9ypV3VDK7shyTQOS4xBG1SCACc3b
/ciy3k8fyZaP0c+BmdKrucUn4EDodumkTckDC77V8fRCziyDbj6AvctZNk00RwiR
qOEj9eCvia4adD7qghkH7zzWP89cdV5XxzIXsRY2fHunRare4bjBogUa5DBRo6+e
rKCK/P2ds6muJWKRy+7nvPycPOkV7qJv9fH9blmpQQvGfQ==
-----END CERTIFICATE-----
