Certificate:
    Data:
        Version: 3 (0x2)
        Serial Number: 3 (0x3)
    Signature Algorithm: sha256WithRSAEncryption
        Issuer: CN=cacert, C=FI, ST=Helsinki, L=Helsinki, O=MariaDB
        Validity
            Not Before: Apr 25 20:52:33 2017 GMT
            Not After : Apr 20 20:52:33 2037 GMT
        Subject: C=FI, ST=Helsinki, L=Helsinki, O=MariaDB, CN=client
        Subject Public Key Info:
            Public Key Algorithm: rsaEncryption
                Public-Key: (1024 bit)
                Modulus:
                    00:a1:10:ea:cc:8e:2c:73:6b:33:1a:5e:26:19:b6:
                    4b:4c:bc:04:b8:c2:e2:33:eb:67:a2:7a:27:af:3f:
                    f7:ef:49:5f:c1:d2:b9:d9:71:fe:17:a0:93:da:dc:
                    f1:47:de:fa:1f:c3:c1:d1:a5:2a:06:cb:b3:e8:9a:
                    c1:bd:78:77:68:45:c1:55:cd:b1:c1:d3:df:8c:12:
                    4f:c2:3a:0d:b7:58:dc:ca:13:08:b9:fb:12:24:90:
                    aa:b7:4e:04:eb:43:0d:45:be:1c:17:d6:a8:b1:af:
                    10:3c:39:d6:08:45:ed:a9:7e:3a:69:ae:70:22:86:
                    7e:71:1f:f1:0e:d0:0d:32:c3
                Exponent: 65537 (0x10001)
        X509v3 extensions:
            X509v3 Basic Constraints: 
                CA:FALSE
            Netscape Comment: 
                OpenSSL Generated Certificate
            X509v3 Subject Key Identifier: 
                0C:20:76:A1:80:9C:2F:30:3D:F7:AB:8D:31:19:AD:E2:F7:E2:8D:12
            X509v3 Authority Key Identifier: 
                keyid:1C:C7:2B:AA:1B:B1:BB:2E:9A:F4:0F:B1:86:60:57:38:C2:41:05:12

    Signature Algorithm: sha256WithRSAEncryption
         39:c0:90:13:19:85:47:9d:c6:ab:8c:c6:c9:0f:33:11:19:f7:
         01:2c:1b:08:f6:81:98:11:ab:48:05:d9:b2:29:56:32:9c:ba:
         e5:40:df:85:5e:6d:fd:6e:36:9a:14:eb:90:50:57:de:2f:ed:
         2d:89:a6:8a:40:1c:41:84:9b:da:e1:6d:e6:7c:46:b2:e0:90:
         93:02:1c:52:2e:af:b4:d4:a1:d8:9d:19:cf:0a:67:bf:c3:3e:
         2e:02:f4:3e:bc:2e:59:57:30:85:8a:32:ab:22:88:72:37:6e:
         ee:ed:f8:53:72:c9:28:87:50:47:81:1b:80:4c:f8:80:ce:2f:
         47:ca:78:ce:38:51:70:ec:df:ee:fc:ea:5a:40:1e:4d:1c:fd:
         4e:f6:74:d0:22:a4:7e:57:df:16:1a:a0:8d:be:fe:ee:f2:07:
         2e:39:a1:97:40:19:f9:3b:b8:e7:c4:98:6e:1d:1a:27:d3:19:
         4c:5c:c9:c3:31:98:c1:3c:27:0e:6a:de:cf:88:72:cf:e4:65:
         c9:0d:33:32:f1:ea:f7:dd:5b:9d:42:6d:ee:c7:a8:b7:85:d2:
         41:e0:84:38:ce:86:81:ba:6e:7d:d5:ad:7a:00:58:d7:c5:83:
         9e:5c:1d:38:32:72:49:f5:42:4b:e7:c6:5c:12:6d:e1:5d:51:
         2c:f5:52:f0
-----BEGIN CERTIFICATE-----
MIIDHjCCAgagAwIBAgIBAzANBgkqhkiG9w0BAQsFADBWMQ8wDQYDVQQDDAZjYWNl
cnQxCzAJBgNVBAYTAkZJMREwDwYDVQQIDAhIZWxzaW5raTERMA8GA1UEBwwISGVs
c2lua2kxEDAOBgNVBAoMB01hcmlhREIwHhcNMTcwNDI1MjA1MjMzWhcNMzcwNDIw
MjA1MjMzWjBWMQswCQYDVQQGEwJGSTERMA8GA1UECAwISGVsc2lua2kxETAPBgNV
BAcMCEhlbHNpbmtpMRAwDgYDVQQKDAdNYXJpYURCMQ8wDQYDVQQDDAZjbGllbnQw
gZ8wDQYJKoZIhvcNAQEBBQADgY0AMIGJAoGBAKEQ6syOLHNrMxpeJhm2S0y8BLjC
4jPrZ6J6J68/9+9JX8HSudlx/hegk9rc8Ufe+h/DwdGlKgbLs+iawb14d2hFwVXN
scHT34wST8I6DbdY3MoTCLn7EiSQqrdOBOtDDUW+HBfWqLGvEDw51ghF7al+Ommu
cCKGfnEf8Q7QDTLDAgMBAAGjezB5MAkGA1UdEwQCMAAwLAYJYIZIAYb4QgENBB8W
HU9wZW5TU0wgR2VuZXJhdGVkIENlcnRpZmljYXRlMB0GA1UdDgQWBBQMIHahgJwv
MD33q40xGa3i9+KNEjAfBgNVHSMEGDAWgBQcxyuqG7G7Lpr0D7GGYFc4wkEFEjAN
BgkqhkiG9w0BAQsFAAOCAQEAOcCQExmFR53Gq4zGyQ8zERn3ASwbCPaBmBGrSAXZ
silWMpy65UDfhV5t/W42mhTrkFBX3i/tLYmmikAcQYSb2uFt5nxGsuCQkwIcUi6v
tNSh2J0Zzwpnv8M+LgL0PrwuWVcwhYoyqyKIcjdu7u34U3LJKIdQR4EbgEz4gM4v
R8p4zjhRcOzf7vzqWkAeTRz9TvZ00CKkflffFhqgjb7+7vIHLjmhl0AZ+Tu458SY
bh0aJ9MZTFzJwzGYwTwnDmrez4hyz+RlyQ0zMvHq991bnUJt7seot4XSQeCEOM6G
gbpufdWtegBY18WDnlwdODJySfVCS+fGXBJt4V1RLPVS8A==
-----END CERTIFICATE-----
