Certificate:
    Data:
        Version: 1 (0x0)
        Serial Number: 4097 (0x1001)
        Signature Algorithm: sha256WithRSAEncryption
        Issuer: C=FI, ST=Helsinki, L=Helsinki, O=MariaDB, CN=Galera CA
        Validity
            Not Before: May 20 01:32:38 2025 GMT
            Not After : May 20 01:32:38 2125 GMT
        Subject: 
        Subject Public Key Info:
            Public Key Algorithm: rsaEncryption
                Public-Key: (2048 bit)
                Modulus:
                    00:c9:0e:e9:9d:eb:8f:8d:7f:79:aa:55:7f:2d:c0:
                    be:92:10:77:46:78:31:63:38:82:01:91:91:4c:c1:
                    49:85:04:d3:28:0a:49:80:81:1f:3c:3c:00:6f:aa:
                    e1:ad:d1:44:0a:72:2a:82:39:72:12:5e:3d:0e:be:
                    43:f8:11:98:6a:cb:35:a8:f5:05:e1:1b:b1:9f:14:
                    ee:59:9d:4a:34:cc:92:0d:9b:cf:23:db:ba:5e:68:
                    b3:de:2f:37:04:41:c7:84:b0:62:fb:5d:7a:b9:6e:
                    0d:f8:f9:82:23:24:8c:0e:f6:34:b7:93:fe:82:f6:
                    fc:56:45:46:67:63:b1:a7:18:2d:2b:7a:90:92:9c:
                    a0:cc:11:18:68:f1:9d:24:a5:77:40:cc:c3:ae:df:
                    ed:c9:1c:cb:e1:66:0c:04:3e:93:2b:4f:ad:31:c1:
                    33:64:a4:27:7d:27:da:40:bb:bb:d9:a1:f1:b0:bc:
                    43:de:52:22:78:0d:21:ac:20:e0:62:15:4b:60:a4:
                    60:77:34:44:75:76:1f:57:00:23:15:dd:51:29:b2:
                    5e:75:99:b0:72:0b:49:21:31:1f:5f:a4:b9:ef:c4:
                    f1:1e:4c:0d:1f:4b:2d:f1:71:f9:b1:df:3f:9c:01:
                    7e:cd:66:ef:07:e6:e7:9a:95:eb:86:ba:44:05:84:
                    42:2b
                Exponent: 65537 (0x10001)
    Signature Algorithm: sha256WithRSAEncryption
    Signature Value:
        90:67:64:33:70:bd:c8:15:10:8d:8c:f3:09:48:c8:12:8d:58:
        25:b6:a7:a5:2f:54:4e:a3:8e:4c:8d:e7:bb:60:2e:1c:1d:0f:
        c1:62:78:d3:47:18:a0:c6:55:4c:69:38:07:e4:86:7a:c6:35:
        f3:bd:05:1b:a4:67:ea:d9:ed:72:e5:37:df:7f:97:2f:76:4e:
        d8:7a:df:de:7f:35:15:de:cd:e0:e3:c2:e1:96:15:79:3f:88:
        5f:d1:f1:b4:f1:41:21:f1:6a:cd:92:3d:4c:14:fc:5b:17:d0:
        ec:7d:12:88:18:74:ec:5c:2a:d3:e7:7b:c4:69:53:51:37:71:
        d1:f8:2a:70:80:e3:b7:b5:00:a6:df:d4:9b:d4:65:5e:e2:53:
        6e:98:6d:76:26:cd:19:cd:08:ec:81:8b:54:50:53:9b:06:f3:
        65:83:a9:1b:9c:f0:ed:12:88:c5:0c:f2:02:d4:3f:09:fb:43:
        f9:1e:13:12:05:c4:e7:47:e7:9e:bf:c0:6a:70:17:3e:f4:29:
        92:77:a8:1b:d9:1c:3c:e3:ae:5d:c8:98:a6:4b:3d:22:a8:cd:
        46:8e:8b:4e:b2:0c:a3:3e:9e:fe:98:a1:2c:36:10:f9:b6:63:
        d4:ae:bb:a8:f3:e8:cd:2f:0e:06:a2:e9:e1:41:3f:25:8b:ec:
        a1:65:56:ec:d6:98:4b:b3:fc:d1:8f:21:1e:55:3d:28:10:c3:
        55:30:54:0a:92:f5:33:7e:c6:68:fb:7d:b3:5f:5a:a2:65:4f:
        25:53:93:3a:11:4a:23:5b:26:59:8e:5d:c5:56:c9:35:f5:55:
        45:f1:0c:f0:b3:98:62:3f:42:f3:44:17:81:fd:41:80:e5:6e:
        45:76:19:f0:34:f6:9a:13:76:5e:2e:08:66:71:e0:5d:f8:aa:
        f9:ef:4b:1d:23:bc:c7:a7:e4:09:61:df:e6:b7:9a:7f:d2:8c:
        25:f3:26:e2:38:36:1a:1e:23:a9:10:60:08:59:22:52:cf:64:
        47:68:a0:04:31:33:f7:14:ec:33:87:76:f2:84:d1:37:07:fc:
        1a:fa:23:94:2a:7e:72:f8:bb:45:17:49:d7:57:46:c1:aa:4c:
        d2:04:dc:82:7b:33:b9:44:ee:d2:bb:4c:60:f0:93:7b:68:19:
        77:65:7b:ce:65:d2:16:2d:0b:3d:0b:7d:62:96:86:29:c2:01:
        57:26:02:15:67:cb:97:5b:2e:a6:65:60:b9:4f:53:ce:3a:6a:
        35:06:50:d9:1b:be:5b:a0:0e:0a:b4:66:40:a5:6a:40:d1:37:
        fd:f9:0a:63:22:b4:08:7d:5f:1a:ed:cb:6f:74:17:b6:a3:56:
        54:24:38:8f:c4:6a:cf:46
-----BEGIN CERTIFICATE-----
MIID0DCCAbgCAhABMA0GCSqGSIb3DQEBCwUAMFkxCzAJBgNVBAYTAkZJMREwDwYD
VQQIDAhIZWxzaW5raTERMA8GA1UEBwwISGVsc2lua2kxEDAOBgNVBAoMB01hcmlh
REIxEjAQBgNVBAMMCUdhbGVyYSBDQTAgFw0yNTA1MjAwMTMyMzhaGA8yMTI1MDUy
MDAxMzIzOFowADCCASIwDQYJKoZIhvcNAQEBBQADggEPADCCAQoCggEBAMkO6Z3r
j41/eapVfy3AvpIQd0Z4MWM4ggGRkUzBSYUE0ygKSYCBHzw8AG+q4a3RRApyKoI5
chJePQ6+Q/gRmGrLNaj1BeEbsZ8U7lmdSjTMkg2bzyPbul5os94vNwRBx4SwYvtd
erluDfj5giMkjA72NLeT/oL2/FZFRmdjsacYLSt6kJKcoMwRGGjxnSSld0DMw67f
7ckcy+FmDAQ+kytPrTHBM2SkJ30n2kC7u9mh8bC8Q95SIngNIawg4GIVS2CkYHc0
RHV2H1cAIxXdUSmyXnWZsHILSSExH1+kue/E8R5MDR9LLfFx+bHfP5wBfs1m7wfm
55qV64a6RAWEQisCAwEAATANBgkqhkiG9w0BAQsFAAOCAgEAkGdkM3C9yBUQjYzz
CUjIEo1YJbanpS9UTqOOTI3nu2AuHB0PwWJ400cYoMZVTGk4B+SGesY1870FG6Rn
6tntcuU333+XL3ZO2Hrf3n81Fd7N4OPC4ZYVeT+IX9HxtPFBIfFqzZI9TBT8WxfQ
7H0SiBh07Fwq0+d7xGlTUTdx0fgqcIDjt7UApt/Um9RlXuJTbphtdibNGc0I7IGL
VFBTmwbzZYOpG5zw7RKIxQzyAtQ/CftD+R4TEgXE50fnnr/AanAXPvQpkneoG9kc
POOuXciYpks9IqjNRo6LTrIMoz6e/pihLDYQ+bZj1K67qPPozS8OBqLp4UE/JYvs
oWVW7NaYS7P80Y8hHlU9KBDDVTBUCpL1M37GaPt9s19aomVPJVOTOhFKI1smWY5d
xVbJNfVVRfEM8LOYYj9C80QXgf1BgOVuRXYZ8DT2mhN2Xi4IZnHgXfiq+e9LHSO8
x6fkCWHf5reaf9KMJfMm4jg2Gh4jqRBgCFkiUs9kR2igBDEz9xTsM4d28oTRNwf8
GvojlCp+cvi7RRdJ11dGwapM0gTcgnszuUTu0rtMYPCTe2gZd2V7zmXSFi0LPQt9
YpaGKcIBVyYCFWfLl1supmVguU9TzjpqNQZQ2Ru+W6AOCrRmQKVqQNE3/fkKYyK0
CH1fGu3Lb3QXtqNWVCQ4j8Rqz0Y=
-----END CERTIFICATE-----
