Certificate:
    Data:
        Version: 1 (0x0)
        Serial Number: 4096 (0x1000)
        Signature Algorithm: sha256WithRSAEncryption
        Issuer: C=FI, ST=Helsinki, L=Helsinki, O=MariaDB, CN=Galera CA
        Validity
            Not Before: May 20 01:31:39 2025 GMT
            Not After : May 20 01:31:39 2125 GMT
        Subject: 
        Subject Public Key Info:
            Public Key Algorithm: rsaEncryption
                Public-Key: (2048 bit)
                Modulus:
                    00:a5:04:b1:45:03:ef:44:cb:1f:31:0c:5d:87:60:
                    82:25:a8:f7:62:1f:a9:ed:82:06:67:23:6a:b0:0c:
                    59:3e:b7:c9:ec:17:16:e2:0b:55:06:49:26:82:e9:
                    d0:bb:82:a4:79:08:6d:93:2f:6b:a2:40:73:3a:77:
                    a0:e8:47:99:40:27:fa:d7:39:33:26:9c:3d:c5:0b:
                    82:ba:ea:48:71:53:18:0f:f6:47:a5:02:89:80:16:
                    68:77:33:d1:a2:bb:34:7f:38:ae:c4:cd:85:f1:8d:
                    84:e4:e3:dc:23:93:be:b3:93:bc:de:db:bb:67:6a:
                    ec:55:f6:6a:c0:bd:b5:18:6e:2e:15:06:a1:b9:f2:
                    fc:72:12:4d:fc:c1:5a:38:b2:30:17:c0:de:83:19:
                    4c:fc:9c:c5:0f:c2:b1:86:57:30:88:82:07:f7:ff:
                    96:68:1e:55:7c:18:3f:53:5e:40:20:06:02:a1:6e:
                    f7:03:4b:82:ea:9e:4f:07:97:03:33:d0:bf:1c:de:
                    b8:17:bf:7d:4c:3a:48:2d:41:ed:82:e6:3a:2c:6f:
                    4f:fd:b1:2d:33:ed:d6:36:8c:bc:f2:ff:52:af:aa:
                    32:9b:cf:87:45:f3:b3:61:d1:20:7d:03:a3:2f:1f:
                    6c:1d:f9:b8:41:e9:88:04:c1:ae:b9:23:36:80:59:
                    d1:4f
                Exponent: 65537 (0x10001)
    Signature Algorithm: sha256WithRSAEncryption
    Signature Value:
        a1:d1:8e:b3:3f:47:3a:4a:2c:f0:bf:34:72:69:99:f2:fa:a9:
        a0:72:3c:7e:7a:69:c1:d6:97:4f:bd:44:ac:92:79:46:e4:8e:
        62:c0:cd:41:e9:55:a7:29:33:d6:f6:e7:e5:13:e9:5a:a1:83:
        85:16:cb:e2:38:9a:55:b1:57:51:ea:cc:ca:5c:46:ab:1d:a5:
        73:d6:d6:df:57:e8:7c:40:16:63:17:75:b2:13:ac:31:eb:96:
        85:3b:fb:92:d6:69:4d:ab:e2:1d:22:82:0f:71:66:8d:b0:a9:
        56:a2:77:5e:f8:56:90:22:1f:ee:e7:79:33:37:c7:9f:a1:06:
        01:35:fe:13:12:75:2e:d9:2a:04:e5:8f:21:4a:20:de:a5:07:
        89:aa:0c:c2:d2:ec:a1:47:d6:f6:87:f7:ed:29:f9:69:c6:83:
        f6:18:8d:7e:7e:3a:53:c7:b3:91:bd:9a:b8:e3:ac:66:de:57:
        b8:2d:c5:d5:54:61:1b:27:96:e8:34:0d:a9:88:4f:03:5a:27:
        e0:5f:b5:90:97:9f:57:39:f5:a9:9d:c6:b6:77:1a:bb:86:57:
        57:0c:79:6e:66:5f:93:c1:f7:df:c8:06:3c:df:c5:f8:ef:b3:
        e3:61:8b:15:8a:45:4f:db:1d:7f:2b:eb:c9:54:ba:6e:c8:b8:
        40:ca:de:10:93:a9:a4:8c:17:56:50:37:9c:6b:ba:9c:b0:5f:
        4c:49:a7:9c:ba:3c:81:37:e3:a2:b3:6a:71:b9:f6:a6:bb:81:
        f3:5c:40:ae:f5:e1:68:32:e3:af:22:5b:88:aa:df:2e:3b:5d:
        e2:63:ab:c7:01:a3:c8:3a:e1:06:9f:2f:d1:9f:b4:06:c4:11:
        83:c2:99:4a:de:f0:c2:32:04:b8:65:26:e9:57:3f:7d:52:d7:
        d8:1c:6e:2c:55:53:d3:81:1d:b9:9e:0a:c1:34:a6:6a:48:af:
        3b:d9:6e:84:16:30:33:a6:10:17:36:b4:30:68:fd:95:e9:3e:
        35:c3:95:71:7a:86:26:a7:46:66:09:95:91:c6:c2:ba:a6:61:
        c2:a5:b6:38:8e:34:a0:14:f1:d7:0c:11:93:0a:a4:d3:f8:b7:
        32:fd:12:38:64:9f:68:fe:3d:a1:f6:28:c1:c8:9f:1f:ea:a5:
        e2:77:fd:ad:d9:21:22:40:b2:9e:8e:81:3f:79:0e:13:19:1e:
        70:0f:4a:4b:81:ea:92:c5:fa:4f:80:e9:8f:5e:ac:dc:09:74:
        70:e1:7b:23:68:0c:18:c7:7f:07:4a:39:42:29:d6:c3:62:16:
        ec:15:73:02:93:a6:a3:5f:21:90:59:8e:e6:b1:0a:be:32:cf:
        6d:4e:7e:56:3d:87:13:0f
-----BEGIN CERTIFICATE-----
MIID0DCCAbgCAhAAMA0GCSqGSIb3DQEBCwUAMFkxCzAJBgNVBAYTAkZJMREwDwYD
VQQIDAhIZWxzaW5raTERMA8GA1UEBwwISGVsc2lua2kxEDAOBgNVBAoMB01hcmlh
REIxEjAQBgNVBAMMCUdhbGVyYSBDQTAgFw0yNTA1MjAwMTMxMzlaGA8yMTI1MDUy
MDAxMzEzOVowADCCASIwDQYJKoZIhvcNAQEBBQADggEPADCCAQoCggEBAKUEsUUD
70TLHzEMXYdggiWo92Ifqe2CBmcjarAMWT63yewXFuILVQZJJoLp0LuCpHkIbZMv
a6JAczp3oOhHmUAn+tc5MyacPcULgrrqSHFTGA/2R6UCiYAWaHcz0aK7NH84rsTN
hfGNhOTj3COTvrOTvN7bu2dq7FX2asC9tRhuLhUGobny/HISTfzBWjiyMBfA3oMZ
TPycxQ/CsYZXMIiCB/f/lmgeVXwYP1NeQCAGAqFu9wNLguqeTweXAzPQvxzeuBe/
fUw6SC1B7YLmOixvT/2xLTPt1jaMvPL/Uq+qMpvPh0Xzs2HRIH0Doy8fbB35uEHp
iATBrrkjNoBZ0U8CAwEAATANBgkqhkiG9w0BAQsFAAOCAgEAodGOsz9HOkos8L80
cmmZ8vqpoHI8fnppwdaXT71ErJJ5RuSOYsDNQelVpykz1vbn5RPpWqGDhRbL4jia
VbFXUerMylxGqx2lc9bW31fofEAWYxd1shOsMeuWhTv7ktZpTaviHSKCD3FmjbCp
VqJ3XvhWkCIf7ud5MzfHn6EGATX+ExJ1LtkqBOWPIUog3qUHiaoMwtLsoUfW9of3
7Sn5acaD9hiNfn46U8ezkb2auOOsZt5XuC3F1VRhGyeW6DQNqYhPA1on4F+1kJef
Vzn1qZ3Gtncau4ZXVwx5bmZfk8H338gGPN/F+O+z42GLFYpFT9sdfyvryVS6bsi4
QMreEJOppIwXVlA3nGu6nLBfTEmnnLo8gTfjorNqcbn2pruB81xArvXhaDLjryJb
iKrfLjtd4mOrxwGjyDrhBp8v0Z+0BsQRg8KZSt7wwjIEuGUm6Vc/fVLX2BxuLFVT
04EduZ4KwTSmakivO9luhBYwM6YQFza0MGj9lek+NcOVcXqGJqdGZgmVkcbCuqZh
wqW2OI40oBTx1wwRkwqk0/i3Mv0SOGSfaP49ofYowcifH+ql4nf9rdkhIkCyno6B
P3kOExkecA9KS4HqksX6T4Dpj16s3Al0cOF7I2gMGMd/B0o5QinWw2IW7BVzApOm
o18hkFmO5rEKvjLPbU5+Vj2HEw8=
-----END CERTIFICATE-----
