Certificate:
    Data:
        Version: 3 (0x2)
        Serial Number: 1 (0x1)
    Signature Algorithm: sha256WithRSAEncryption
        Issuer: CN=cacert, C=FI, ST=Helsinki, L=Helsinki, O=MariaDB
        Validity
            Not Before: Jan 27 10:11:10 2019 GMT
            Not After : Jan 22 10:11:10 2039 GMT
        Subject: C=FI, ST=state or province within country, in other certificates in this file it is the same as L, L=location, usually an address but often ambiguously used, O=organization name, typically a company name, OU=organizational unit name, a division name within an organization, CN=localhost
        Subject Public Key Info:
            Public Key Algorithm: rsaEncryption
                Public-Key: (2048 bit)
                Modulus:
                    00:eb:7c:4f:59:f0:40:37:ed:38:b2:e8:30:69:4e:
                    95:c9:00:59:d1:60:3b:8a:aa:28:a1:20:40:ee:bf:
                    1c:f3:b0:a6:40:8e:57:a4:79:81:c9:70:9f:8c:3d:
                    f4:5c:b0:f9:58:55:d9:62:b2:4b:69:e1:1a:73:bf:
                    03:0e:8b:ca:d3:0d:f2:12:ea:68:1e:b8:f5:ba:29:
                    02:b0:15:7f:76:52:9a:7d:ee:6d:7e:2c:f5:5a:d0:
                    8c:a7:c9:53:d8:8c:ce:e3:be:c7:bb:4a:ae:7c:f9:
                    f1:6d:07:ac:3b:55:cd:83:3d:e4:ef:96:8e:a9:c9:
                    1c:cb:84:99:cf:37:f5:53:57:e7:94:78:97:12:04:
                    1f:dc:31:f8:f0:bf:7c:9b:ef:8a:25:02:1f:1b:ab:
                    cd:f9:bd:a9:de:df:e1:3d:b2:fb:92:44:93:59:ab:
                    f7:c2:a6:e1:05:19:49:fb:f8:02:5d:3e:d0:50:26:
                    5b:e3:26:ac:fb:cf:ab:f1:52:0a:12:36:16:3d:b5:
                    9e:12:f3:c3:69:e2:9b:89:70:b2:31:56:9a:9b:91:
                    a4:c6:39:01:56:e4:b5:8b:35:70:4e:eb:45:1b:70:
                    7d:1a:52:2f:a5:37:32:80:ae:50:d0:da:4a:85:6a:
                    3c:66:e7:41:85:c8:3a:dd:25:d8:4c:32:85:cb:12:
                    bc:81
                Exponent: 65537 (0x10001)
        X509v3 extensions:
            X509v3 Basic Constraints: 
                CA:FALSE
            Netscape Comment: 
                OpenSSL Generated Certificate
            X509v3 Subject Key Identifier: 
                0B:18:61:66:8F:12:44:81:60:0D:80:D6:0A:6A:9E:DE:D7:69:56:B0
            X509v3 Authority Key Identifier: 
                keyid:CA:71:99:89:F0:72:AB:75:66:BB:65:6A:03:04:72:A5:7B:95:A6:93

    Signature Algorithm: sha256WithRSAEncryption
         ac:6b:15:7d:68:74:9d:ce:e2:ed:80:9c:f6:36:b5:54:8b:60:
         38:d3:cd:43:5c:97:44:1b:c8:6d:73:e2:1d:6a:68:07:bf:c4:
         0c:bf:ae:b9:f1:12:28:1b:07:6d:86:2e:8d:4d:1c:56:3e:e7:
         d7:62:a1:a2:de:9b:7b:1a:8a:b4:7f:76:f1:cf:d3:b5:b0:95:
         91:ce:7e:49:45:0f:11:a6:96:6b:7b:42:07:cc:8d:28:13:d2:
         30:19:5a:c3:31:16:f6:0a:9a:d7:cd:8e:6f:be:8c:aa:91:40:
         68:fa:4d:ff:9f:10:d6:3d:27:27:54:f7:64:fa:7a:89:d9:67:
         4b:63:2b:da:cc:95:f1:30:10:e8:5e:cd:ce:43:c9:72:ad:32:
         b6:06:cc:a9:02:dd:4d:9c:00:97:fc:99:80:84:bf:e3:54:5a:
         e8:2c:a5:b3:30:8e:30:cb:3c:5f:74:18:43:a3:42:36:53:78:
         62:4f:08:56:11:80:c2:12:1a:da:70:18:10:7f:3d:15:b4:73:
         29:26:69:7d:3b:ec:f8:18:01:f7:ac:c2:8f:f2:37:8d:8d:fc:
         78:87:bc:d4:cb:1d:c1:14:c7:9c:3b:dc:a9:fd:e8:86:2a:32:
         51:fe:8d:89:cd:6a:9d:7a:6f:0c:52:4b:b2:4d:d3:dc:02:39:
         8d:2d:25:6e
-----BEGIN CERTIFICATE-----
MIIElTCCA32gAwIBAgIBATANBgkqhkiG9w0BAQsFADBWMQ8wDQYDVQQDDAZjYWNl
cnQxCzAJBgNVBAYTAkZJMREwDwYDVQQIDAhIZWxzaW5raTERMA8GA1UEBwwISGVs
c2lua2kxEDAOBgNVBAoMB01hcmlhREIwHhcNMTkwMTI3MTAxMTEwWhcNMzkwMTIy
MTAxMTEwWjCCAUcxCzAJBgNVBAYTAkZJMWEwXwYDVQQIDFhzdGF0ZSBvciBwcm92
aW5jZSB3aXRoaW4gY291bnRyeSwgaW4gb3RoZXIgY2VydGlmaWNhdGVzIGluIHRo
aXMgZmlsZSBpdCBpcyB0aGUgc2FtZSBhcyBMMUAwPgYDVQQHDDdsb2NhdGlvbiwg
dXN1YWxseSBhbiBhZGRyZXNzIGJ1dCBvZnRlbiBhbWJpZ3VvdXNseSB1c2VkMTQw
MgYDVQQKDCtvcmdhbml6YXRpb24gbmFtZSwgdHlwaWNhbGx5IGEgY29tcGFueSBu
YW1lMUkwRwYDVQQLDEBvcmdhbml6YXRpb25hbCB1bml0IG5hbWUsIGEgZGl2aXNp
b24gbmFtZSB3aXRoaW4gYW4gb3JnYW5pemF0aW9uMRIwEAYDVQQDDAlsb2NhbGhv
c3QwggEiMA0GCSqGSIb3DQEBAQUAA4IBDwAwggEKAoIBAQDrfE9Z8EA37Tiy6DBp
TpXJAFnRYDuKqiihIEDuvxzzsKZAjlekeYHJcJ+MPfRcsPlYVdlisktp4RpzvwMO
i8rTDfIS6mgeuPW6KQKwFX92Upp97m1+LPVa0IynyVPYjM7jvse7Sq58+fFtB6w7
Vc2DPeTvlo6pyRzLhJnPN/VTV+eUeJcSBB/cMfjwv3yb74olAh8bq835vane3+E9
svuSRJNZq/fCpuEFGUn7+AJdPtBQJlvjJqz7z6vxUgoSNhY9tZ4S88Np4puJcLIx
VpqbkaTGOQFW5LWLNXBO60UbcH0aUi+lNzKArlDQ2kqFajxm50GFyDrdJdhMMoXL
EryBAgMBAAGjezB5MAkGA1UdEwQCMAAwLAYJYIZIAYb4QgENBB8WHU9wZW5TU0wg
R2VuZXJhdGVkIENlcnRpZmljYXRlMB0GA1UdDgQWBBQLGGFmjxJEgWANgNYKap7e
12lWsDAfBgNVHSMEGDAWgBTKcZmJ8HKrdWa7ZWoDBHKle5WmkzANBgkqhkiG9w0B
AQsFAAOCAQEArGsVfWh0nc7i7YCc9ja1VItgONPNQ1yXRBvIbXPiHWpoB7/EDL+u
ufESKBsHbYYujU0cVj7n12Khot6bexqKtH928c/TtbCVkc5+SUUPEaaWa3tCB8yN
KBPSMBlawzEW9gqa182Ob76MqpFAaPpN/58Q1j0nJ1T3ZPp6idlnS2Mr2syV8TAQ
6F7NzkPJcq0ytgbMqQLdTZwAl/yZgIS/41Ra6CylszCOMMs8X3QYQ6NCNlN4Yk8I
VhGAwhIa2nAYEH89FbRzKSZpfTvs+BgB96zCj/I3jY38eIe81MsdwRTHnDvcqf3o
hioyUf6Nic1qnXpvDFJLsk3T3AI5jS0lbg==
-----END CERTIFICATE-----
