Certificate:
    Data:
        Version: 3 (0x2)
        Serial Number: 4 (0x4)
    Signature Algorithm: sha256WithRSAEncryption
        Issuer: CN=cacert, C=FI, ST=Helsinki, L=Helsinki, O=MariaDB
        Validity
            Not Before: Apr 24 14:29:50 2019 GMT
            Not After : Apr 19 14:29:50 2039 GMT
        Subject: C=FI, ST=Helsinki, L=Helsinki, O=MariaDB, CN=server
        Subject Public Key Info:
            Public Key Algorithm: rsaEncryption
                Public-Key: (1024 bit)
                Modulus:
                    00:c4:ca:f5:53:66:e9:f7:48:39:dc:8c:d7:06:f4:
                    03:3b:87:11:8e:8f:4d:a1:2b:b7:2a:38:37:6c:a2:
                    34:2f:d4:9d:84:78:99:7f:6b:ec:c3:63:ea:e8:9c:
                    57:af:a4:78:cf:59:5f:79:6b:29:11:2c:be:16:56:
                    8f:7b:76:57:c9:36:d5:7f:58:10:f3:d1:c2:dc:09:
                    17:f2:7b:fa:2d:71:c2:50:15:92:af:a0:58:32:f0:
                    64:60:d3:9a:c6:3c:8a:31:e0:b6:b2:9f:29:7d:97:
                    87:3c:62:bf:e6:8e:e7:2f:4a:ac:f7:fe:93:38:bc:
                    86:d4:87:91:38:2d:ed:e2:0d
                Exponent: 65537 (0x10001)
        X509v3 extensions:
            X509v3 Subject Alternative Name: 
                IP Address:127.0.0.1, DNS:localhost
    Signature Algorithm: sha256WithRSAEncryption
         c5:83:b2:bb:a3:3b:a9:42:df:de:30:db:09:90:e1:3e:7a:19:
         09:4b:82:a3:1d:e8:23:3f:61:46:b7:98:b3:2e:90:61:7f:c5:
         a1:36:a6:3e:b0:5b:3f:a1:23:70:7d:0f:71:5b:13:0f:be:73:
         1b:31:1a:b3:ce:f7:59:aa:b4:18:8d:37:e1:8c:07:af:10:18:
         4e:37:16:b2:67:73:5b:79:c6:30:16:ab:62:c5:c2:3e:72:06:
         fd:b2:2a:f5:92:99:32:7e:ed:65:7e:bd:b2:74:9d:38:d4:d5:
         35:f8:06:dd:ac:85:75:e7:c2:6b:16:e8:2f:0f:c4:d3:b7:e7:
         be:b6:cd:61:7b:29:e6:3a:c2:7c:38:46:fb:2c:a3:da:fe:84:
         5f:79:99:2f:80:3e:ec:09:88:f4:31:cd:5c:d1:32:a1:9f:1f:
         55:f2:9b:c6:4e:b2:26:04:9b:ee:04:42:d2:40:88:0e:c8:cf:
         e0:6e:06:a1:6a:c8:1a:62:d0:7a:a4:19:4d:9c:e4:b6:57:e2:
         1d:19:57:54:58:1b:cc:bf:b8:29:e2:15:1e:f1:96:be:30:9e:
         4c:05:f9:90:e3:a1:7b:d7:e0:63:a6:d1:25:b1:80:81:f3:1b:
         55:4f:c1:64:9f:a1:06:01:8c:9a:15:64:b9:12:96:a8:22:4b:
         4a:d9:e3:04
-----BEGIN CERTIFICATE-----
MIICwTCCAamgAwIBAgIBBDANBgkqhkiG9w0BAQsFADBWMQ8wDQYDVQQDDAZjYWNl
cnQxCzAJBgNVBAYTAkZJMREwDwYDVQQIDAhIZWxzaW5raTERMA8GA1UEBwwISGVs
c2lua2kxEDAOBgNVBAoMB01hcmlhREIwHhcNMTkwNDI0MTQyOTUwWhcNMzkwNDE5
MTQyOTUwWjBWMQswCQYDVQQGEwJGSTERMA8GA1UECAwISGVsc2lua2kxETAPBgNV
BAcMCEhlbHNpbmtpMRAwDgYDVQQKDAdNYXJpYURCMQ8wDQYDVQQDDAZzZXJ2ZXIw
gZ8wDQYJKoZIhvcNAQEBBQADgY0AMIGJAoGBAMTK9VNm6fdIOdyM1wb0AzuHEY6P
TaErtyo4N2yiNC/UnYR4mX9r7MNj6uicV6+keM9ZX3lrKREsvhZWj3t2V8k21X9Y
EPPRwtwJF/J7+i1xwlAVkq+gWDLwZGDTmsY8ijHgtrKfKX2Xhzxiv+aO5y9KrPf+
kzi8htSHkTgt7eINAgMBAAGjHjAcMBoGA1UdEQQTMBGHBH8AAAGCCWxvY2FsaG9z
dDANBgkqhkiG9w0BAQsFAAOCAQEAxYOyu6M7qULf3jDbCZDhPnoZCUuCox3oIz9h
RreYsy6QYX/FoTamPrBbP6EjcH0PcVsTD75zGzEas873Waq0GI034YwHrxAYTjcW
smdzW3nGMBarYsXCPnIG/bIq9ZKZMn7tZX69snSdONTVNfgG3ayFdefCaxboLw/E
07fnvrbNYXsp5jrCfDhG+yyj2v6EX3mZL4A+7AmI9DHNXNEyoZ8fVfKbxk6yJgSb
7gRC0kCIDsjP4G4GoWrIGmLQeqQZTZzktlfiHRlXVFgbzL+4KeIVHvGWvjCeTAX5
kOOhe9fgY6bRJbGAgfMbVU/BZJ+hBgGMmhVkuRKWqCJLStnjBA==
-----END CERTIFICATE-----
