Certificate:
    Data:
        Version: 3 (0x2)
        Serial Number: 4 (0x4)
    Signature Algorithm: sha256WithRSAEncryption
        Issuer: CN=cacert, C=FI, ST=Helsinki, L=Helsinki, O=MariaDB
        Validity
            Not Before: Apr 25 20:52:33 2017 GMT
            Not After : Apr 20 20:52:33 2037 GMT
        Subject: C=FI, ST=Helsinki, L=Helsinki, O=MariaDB, CN=server
        Subject Public Key Info:
            Public Key Algorithm: rsaEncryption
                Public-Key: (1024 bit)
                Modulus:
                    00:a7:74:d4:2b:80:cb:96:08:2a:b9:c2:87:18:0d:
                    69:2b:da:cf:ef:21:cb:05:d4:80:2c:f3:85:bc:78:
                    b2:42:d9:9f:f1:dc:47:68:c5:af:5a:c9:01:f0:dd:
                    91:cb:3a:b9:38:b2:36:6b:a3:66:ef:cd:44:0f:8f:
                    39:57:60:ad:3b:44:33:51:c2:7f:cb:5c:8d:55:b8:
                    1e:e8:80:e0:ed:9d:8d:10:7a:42:68:73:06:63:83:
                    ce:db:05:5b:e1:7b:f9:0e:87:20:38:b8:11:6a:b7:
                    59:3d:4a:ca:cb:60:e6:e1:73:d9:a2:24:4a:70:93:
                    5e:cf:d5:04:d5:ad:ac:96:a5
                Exponent: 65537 (0x10001)
        X509v3 extensions:
            X509v3 Subject Alternative Name: 
                DNS:localhost
    Signature Algorithm: sha256WithRSAEncryption
         4b:78:d9:09:4c:25:cc:fb:17:8f:31:13:ac:d7:36:2d:5f:d4:
         ce:94:84:d2:a7:fa:e2:1e:ae:b6:72:1f:01:56:0f:89:80:c0:
         01:ba:ad:d7:cb:24:c5:25:ec:f8:35:ac:52:1b:4f:af:7c:26:
         8d:d4:d4:91:05:21:b7:ba:3f:6b:1b:8d:1d:a5:6b:7e:7d:be:
         2f:6a:09:83:c2:c3:6c:2f:8a:31:fa:7b:36:3f:6d:e1:62:ca:
         a0:3c:43:b8:53:5a:4a:b3:4d:7a:cb:9c:6e:db:a4:ce:a1:95:
         5e:26:d8:22:39:8c:34:0e:92:bd:87:a2:b1:7a:68:25:57:17:
         b2:d8:43:3b:98:e4:80:6b:7d:3e:ab:32:82:6d:b8:80:45:83:
         d6:55:f8:cd:31:74:17:8c:42:75:09:71:66:b9:e0:94:16:ca:
         1d:db:1e:89:12:a1:9f:00:cb:83:99:5d:5d:28:7a:df:2a:87:
         b5:8d:f1:9c:b9:89:2a:0d:6c:af:61:00:41:cb:03:df:99:4a:
         fe:93:81:88:ff:47:4e:2a:b5:2b:bf:85:0f:9a:21:7b:20:58:
         7a:1c:67:b5:8b:da:db:03:69:25:db:76:0e:f9:23:57:8d:8a:
         47:dc:15:16:7c:2d:66:8f:6a:10:f3:b2:ea:2e:31:c6:d4:2c:
         90:15:56:f4
-----BEGIN CERTIFICATE-----
MIICuzCCAaOgAwIBAgIBBDANBgkqhkiG9w0BAQsFADBWMQ8wDQYDVQQDDAZjYWNl
cnQxCzAJBgNVBAYTAkZJMREwDwYDVQQIDAhIZWxzaW5raTERMA8GA1UEBwwISGVs
c2lua2kxEDAOBgNVBAoMB01hcmlhREIwHhcNMTcwNDI1MjA1MjMzWhcNMzcwNDIw
MjA1MjMzWjBWMQswCQYDVQQGEwJGSTERMA8GA1UECAwISGVsc2lua2kxETAPBgNV
BAcMCEhlbHNpbmtpMRAwDgYDVQQKDAdNYXJpYURCMQ8wDQYDVQQDDAZzZXJ2ZXIw
gZ8wDQYJKoZIhvcNAQEBBQADgY0AMIGJAoGBAKd01CuAy5YIKrnChxgNaSvaz+8h
ywXUgCzzhbx4skLZn/HcR2jFr1rJAfDdkcs6uTiyNmujZu/NRA+POVdgrTtEM1HC
f8tcjVW4HuiA4O2djRB6QmhzBmODztsFW+F7+Q6HIDi4EWq3WT1Kystg5uFz2aIk
SnCTXs/VBNWtrJalAgMBAAGjGDAWMBQGA1UdEQQNMAuCCWxvY2FsaG9zdDANBgkq
hkiG9w0BAQsFAAOCAQEAS3jZCUwlzPsXjzETrNc2LV/UzpSE0qf64h6utnIfAVYP
iYDAAbqt18skxSXs+DWsUhtPr3wmjdTUkQUht7o/axuNHaVrfn2+L2oJg8LDbC+K
Mfp7Nj9t4WLKoDxDuFNaSrNNesucbtukzqGVXibYIjmMNA6SvYeisXpoJVcXsthD
O5jkgGt9Pqsygm24gEWD1lX4zTF0F4xCdQlxZrnglBbKHdseiRKhnwDLg5ldXSh6
3yqHtY3xnLmJKg1sr2EAQcsD35lK/pOBiP9HTiq1K7+FD5oheyBYehxntYva2wNp
Jdt2DvkjV42KR9wVFnwtZo9qEPOy6i4xxtQskBVW9A==
-----END CERTIFICATE-----
