Certificate:
    Data:
        Version: 3 (0x2)
        Serial Number: 1 (0x1)
    Signature Algorithm: sha256WithRSAEncryption
        Issuer: CN=cacert, C=FI, ST=Helsinki, L=Helsinki, O=MariaDB
        Validity
            Not Before: Apr 25 20:52:21 2017 GMT
            Not After : Apr 20 20:52:21 2037 GMT
        Subject: C=FI, ST=state or province within country, in other certificates in this file it is the same as L, L=location, usually an address but often ambiguously used, O=organization name, typically a company name, OU=organizational unit name, a division name within an organization, CN=localhost
        Subject Public Key Info:
            Public Key Algorithm: rsaEncryption
                Public-Key: (1024 bit)
                Modulus:
                    00:c9:fe:83:3f:0b:38:89:1d:43:15:93:5c:26:b9:
                    80:65:41:bd:2f:63:66:5e:db:fa:33:20:d9:c7:e1:
                    35:f3:14:3c:c8:b4:f7:09:d8:f5:b5:44:8f:6b:7e:
                    a0:a4:3b:45:5f:e6:f4:0f:08:67:f8:5a:4c:49:e4:
                    e5:39:31:69:8c:cf:25:78:93:a6:7f:58:e9:90:9c:
                    61:cb:2e:14:b1:57:b2:15:9c:ea:8d:6f:96:20:fe:
                    29:ed:2c:71:b8:4f:1f:e0:05:6c:04:b1:7e:e0:bc:
                    42:8e:bf:95:5e:a9:5e:c9:c9:a4:64:c2:1f:59:94:
                    14:c2:06:44:79:bc:d2:65:2d
                Exponent: 65537 (0x10001)
        X509v3 extensions:
            X509v3 Basic Constraints: 
                CA:FALSE
            Netscape Comment: 
                OpenSSL Generated Certificate
            X509v3 Subject Key Identifier: 
                CB:22:3B:E6:DA:B8:3D:7E:39:61:18:38:50:C8:4D:B4:C8:9A:3E:2B
            X509v3 Authority Key Identifier: 
                keyid:1C:C7:2B:AA:1B:B1:BB:2E:9A:F4:0F:B1:86:60:57:38:C2:41:05:12

    Signature Algorithm: sha256WithRSAEncryption
         8e:b7:3d:cc:2b:e5:27:49:49:5a:d4:3c:83:9b:2f:7d:11:de:
         6b:0f:b4:51:02:e4:37:d0:c4:b5:7b:4b:e3:42:93:75:32:d1:
         eb:41:a2:27:fe:4d:91:ae:2b:a0:8b:3b:7f:e9:1b:47:85:73:
         9f:b7:05:74:34:eb:62:12:d8:f2:24:6a:b4:24:58:7a:6a:55:
         3e:ba:54:f9:51:de:54:0e:19:06:f6:01:23:32:0a:6c:81:e2:
         57:8a:9e:71:c5:ba:ca:c3:0f:18:d4:ef:54:4b:e1:ee:7c:3a:
         f3:4d:c3:a3:44:21:9f:c8:ef:85:01:ab:fe:a9:7b:36:05:10:
         25:5e:61:b8:1d:7c:40:8a:5d:5b:c1:bb:7c:79:45:6e:84:63:
         b5:3f:51:e9:9c:57:01:de:2d:1e:85:cb:83:f0:16:6d:78:bb:
         12:01:a5:e5:a2:a7:80:fa:54:8f:9a:5c:de:1c:52:a2:bd:00:
         49:e4:04:65:30:f9:b9:fc:4f:94:e2:d8:39:89:b6:a5:a5:2d:
         db:25:a3:0d:5b:f9:e1:2a:13:19:5e:d7:1a:33:89:5b:ac:bd:
         29:26:da:1a:90:7e:08:19:dd:59:4b:50:fd:46:c3:0b:91:33:
         8b:c6:70:d1:22:18:37:a3:8b:d3:8f:f8:68:cf:38:8e:e1:ef:
         ac:17:88:ca
-----BEGIN CERTIFICATE-----
MIIEETCCAvmgAwIBAgIBATANBgkqhkiG9w0BAQsFADBWMQ8wDQYDVQQDDAZjYWNl
cnQxCzAJBgNVBAYTAkZJMREwDwYDVQQIDAhIZWxzaW5raTERMA8GA1UEBwwISGVs
c2lua2kxEDAOBgNVBAoMB01hcmlhREIwHhcNMTcwNDI1MjA1MjIxWhcNMzcwNDIw
MjA1MjIxWjCCAUcxCzAJBgNVBAYTAkZJMWEwXwYDVQQIDFhzdGF0ZSBvciBwcm92
aW5jZSB3aXRoaW4gY291bnRyeSwgaW4gb3RoZXIgY2VydGlmaWNhdGVzIGluIHRo
aXMgZmlsZSBpdCBpcyB0aGUgc2FtZSBhcyBMMUAwPgYDVQQHDDdsb2NhdGlvbiwg
dXN1YWxseSBhbiBhZGRyZXNzIGJ1dCBvZnRlbiBhbWJpZ3VvdXNseSB1c2VkMTQw
MgYDVQQKDCtvcmdhbml6YXRpb24gbmFtZSwgdHlwaWNhbGx5IGEgY29tcGFueSBu
YW1lMUkwRwYDVQQLDEBvcmdhbml6YXRpb25hbCB1bml0IG5hbWUsIGEgZGl2aXNp
b24gbmFtZSB3aXRoaW4gYW4gb3JnYW5pemF0aW9uMRIwEAYDVQQDDAlsb2NhbGhv
c3QwgZ8wDQYJKoZIhvcNAQEBBQADgY0AMIGJAoGBAMn+gz8LOIkdQxWTXCa5gGVB
vS9jZl7b+jMg2cfhNfMUPMi09wnY9bVEj2t+oKQ7RV/m9A8IZ/haTEnk5TkxaYzP
JXiTpn9Y6ZCcYcsuFLFXshWc6o1vliD+Ke0scbhPH+AFbASxfuC8Qo6/lV6pXsnJ
pGTCH1mUFMIGRHm80mUtAgMBAAGjezB5MAkGA1UdEwQCMAAwLAYJYIZIAYb4QgEN
BB8WHU9wZW5TU0wgR2VuZXJhdGVkIENlcnRpZmljYXRlMB0GA1UdDgQWBBTLIjvm
2rg9fjlhGDhQyE20yJo+KzAfBgNVHSMEGDAWgBQcxyuqG7G7Lpr0D7GGYFc4wkEF
EjANBgkqhkiG9w0BAQsFAAOCAQEAjrc9zCvlJ0lJWtQ8g5svfRHeaw+0UQLkN9DE
tXtL40KTdTLR60GiJ/5Nka4roIs7f+kbR4Vzn7cFdDTrYhLY8iRqtCRYempVPrpU
+VHeVA4ZBvYBIzIKbIHiV4qeccW6ysMPGNTvVEvh7nw6803Do0Qhn8jvhQGr/ql7
NgUQJV5huB18QIpdW8G7fHlFboRjtT9R6ZxXAd4tHoXLg/AWbXi7EgGl5aKngPpU
j5pc3hxSor0ASeQEZTD5ufxPlOLYOYm2paUt2yWjDVv54SoTGV7XGjOJW6y9KSba
GpB+CBndWUtQ/UbDC5Ezi8Zw0SIYN6OL04/4aM84juHvrBeIyg==
-----END CERTIFICATE-----
