Certificate:
    Data:
        Version: 3 (0x2)
        Serial Number: 7 (0x7)
    Signature Algorithm: sha256WithRSAEncryption
        Issuer: CN=cacert, C=FI, ST=Helsinki, L=Helsinki, O=MariaDB
        Validity
            Not Before: Dec 11 17:13:59 2018 GMT
            Not After : Dec  7 17:13:59 2038 GMT
        Subject: C=FI, ST=Helsinki, L=Helsinki, O=MariaDB, CN=server-new
        Subject Public Key Info:
            Public Key Algorithm: rsaEncryption
                Public-Key: (1024 bit)
                Modulus:
                    00:c9:40:33:d7:fb:b7:a2:bc:4e:d4:65:27:1a:c9:
                    da:8b:2e:fc:a9:60:1a:69:e8:fd:e3:13:78:b6:08:
                    3b:3e:fd:d3:b0:d3:6c:a1:79:bd:85:ca:be:a1:0a:
                    4e:2a:ee:2c:8d:da:72:e6:85:56:ec:3a:7c:46:a3:
                    d3:18:e7:19:19:8d:14:7e:de:d2:a4:2f:22:56:1c:
                    21:03:24:f6:2d:55:4e:49:25:9f:32:01:94:66:47:
                    e4:fa:fa:45:b1:b7:33:26:da:f1:c7:29:3b:ba:fe:
                    e8:d4:f1:fc:29:57:6b:3a:be:ef:2e:1d:da:ef:0a:
                    d7:54:8d:67:00:7b:7a:29:2b
                Exponent: 65537 (0x10001)
        X509v3 extensions:
            X509v3 Basic Constraints: 
                CA:FALSE
            Netscape Comment: 
                OpenSSL Generated Certificate
            X509v3 Subject Key Identifier: 
                FF:42:5E:88:AC:6A:C8:80:63:A8:AF:20:C6:BE:E8:A4:02:D5:42:AF
            X509v3 Authority Key Identifier: 
                keyid:1C:C7:2B:AA:1B:B1:BB:2E:9A:F4:0F:B1:86:60:57:38:C2:41:05:12

    Signature Algorithm: sha256WithRSAEncryption
         7c:cc:c1:93:43:83:a9:ea:19:9d:1c:a1:f8:e1:c1:61:58:c0:
         db:ef:43:6e:d7:cf:4d:75:38:6e:cb:03:25:5d:21:af:03:b1:
         86:5f:b3:d1:e2:6f:8c:89:55:b7:82:6a:c0:d6:46:08:0c:68:
         9d:ef:cc:2e:79:f5:d8:0b:f2:13:3a:52:cc:08:d5:3a:f0:d8:
         5c:9e:85:a7:38:31:9d:7c:61:2b:59:ee:c0:16:a6:16:dd:80:
         e2:ef:96:3d:b0:13:ec:9b:9a:91:69:3f:6c:46:87:05:55:b7:
         32:85:51:da:02:c3:ac:2d:c3:5e:9a:51:f8:96:75:0b:63:29:
         4e:47:47:f1:82:a6:ad:44:3d:51:b3:19:8b:ae:26:a9:15:a0:
         73:b6:70:6e:4f:72:9d:69:4e:b2:9b:2a:a8:50:87:b8:9f:c0:
         a7:37:0f:9e:bc:4c:80:b9:b8:47:28:8e:33:c3:7f:d7:fe:31:
         f0:a9:1c:7a:f7:a3:34:21:d4:e4:53:86:a3:7e:1d:1c:a7:65:
         fb:ec:f9:1f:17:1e:4f:19:f9:fe:dd:ee:53:0f:b5:98:b7:7a:
         ef:12:6c:8d:32:78:66:a5:42:d7:3d:a5:09:f8:06:05:a4:ff:
         bd:4e:e7:85:c4:f0:dc:dc:20:26:84:91:69:e8:cf:3b:27:9f:
         35:36:cc:ff
-----BEGIN CERTIFICATE-----
MIIDIjCCAgqgAwIBAgIBBzANBgkqhkiG9w0BAQsFADBWMQ8wDQYDVQQDDAZjYWNl
cnQxCzAJBgNVBAYTAkZJMREwDwYDVQQIDAhIZWxzaW5raTERMA8GA1UEBwwISGVs
c2lua2kxEDAOBgNVBAoMB01hcmlhREIwHhcNMTgxMjExMTcxMzU5WhcNMzgxMjA3
MTcxMzU5WjBaMQswCQYDVQQGEwJGSTERMA8GA1UECAwISGVsc2lua2kxETAPBgNV
BAcMCEhlbHNpbmtpMRAwDgYDVQQKDAdNYXJpYURCMRMwEQYDVQQDDApzZXJ2ZXIt
bmV3MIGfMA0GCSqGSIb3DQEBAQUAA4GNADCBiQKBgQDJQDPX+7eivE7UZScaydqL
LvypYBpp6P3jE3i2CDs+/dOw02yheb2Fyr6hCk4q7iyN2nLmhVbsOnxGo9MY5xkZ
jRR+3tKkLyJWHCEDJPYtVU5JJZ8yAZRmR+T6+kWxtzMm2vHHKTu6/ujU8fwpV2s6
vu8uHdrvCtdUjWcAe3opKwIDAQABo3sweTAJBgNVHRMEAjAAMCwGCWCGSAGG+EIB
DQQfFh1PcGVuU1NMIEdlbmVyYXRlZCBDZXJ0aWZpY2F0ZTAdBgNVHQ4EFgQU/0Je
iKxqyIBjqK8gxr7opALVQq8wHwYDVR0jBBgwFoAUHMcrqhuxuy6a9A+xhmBXOMJB
BRIwDQYJKoZIhvcNAQELBQADggEBAHzMwZNDg6nqGZ0cofjhwWFYwNvvQ27Xz011
OG7LAyVdIa8DsYZfs9Hib4yJVbeCasDWRggMaJ3vzC559dgL8hM6UswI1Trw2Fye
hac4MZ18YStZ7sAWphbdgOLvlj2wE+ybmpFpP2xGhwVVtzKFUdoCw6wtw16aUfiW
dQtjKU5HR/GCpq1EPVGzGYuuJqkVoHO2cG5Pcp1pTrKbKqhQh7ifwKc3D568TIC5
uEcojjPDf9f+MfCpHHr3ozQh1ORThqN+HRynZfvs+R8XHk8Z+f7d7lMPtZi3eu8S
bI0yeGalQtc9pQn4BgWk/71O54XE8NzcICaEkWnozzsnnzU2zP8=
-----END CERTIFICATE-----
