Certificate:
    Data:
        Version: 3 (0x2)
        Serial Number: 2 (0x2)
    Signature Algorithm: sha256WithRSAEncryption
        Issuer: CN=cacert, C=FI, ST=Helsinki, L=Helsinki, O=MariaDB
        Validity
            Not Before: Jan 27 10:11:10 2019 GMT
            Not After : Jan 23 10:11:10 2039 GMT
        Subject: C=FI, ST=Helsinki, L=Helsinki, O=MariaDB, CN=server-new
        Subject Public Key Info:
            Public Key Algorithm: rsaEncryption
                Public-Key: (2048 bit)
                Modulus:
                    00:d8:52:35:3e:4b:0e:fe:cc:17:1f:b8:79:5c:35:
                    d6:a0:e3:c5:11:23:5b:12:7f:c3:a4:4d:0f:35:71:
                    e1:94:87:49:11:e2:f4:b3:80:dc:33:c0:65:f4:1b:
                    24:21:b1:c4:e5:d6:b8:1e:83:f6:3f:6b:7f:aa:2a:
                    18:a0:49:6c:87:ee:b4:df:cc:58:19:0f:7f:06:b3:
                    93:ce:8c:de:46:69:80:e9:ac:9e:79:05:bd:e2:c6:
                    bc:80:3f:44:7e:a8:ca:09:72:e3:e4:b0:a4:54:79:
                    08:9c:f8:b0:ed:56:3b:21:da:dd:8b:06:12:df:fb:
                    b6:2e:0e:ca:27:c4:de:8b:55:e2:93:d6:ff:09:aa:
                    f0:a9:8e:83:be:92:fb:9d:a8:c4:b6:27:e2:63:03:
                    3c:0d:6b:4a:05:f9:6f:1c:14:de:f3:c3:ef:60:9f:
                    b4:21:d6:74:6f:a3:a5:6a:c0:b0:4e:7b:37:95:0d:
                    f6:43:06:95:cf:c0:93:13:d0:81:83:5a:aa:bf:81:
                    98:ca:4f:70:46:79:42:84:12:32:74:e4:7f:4e:84:
                    13:83:54:15:49:45:1d:d1:40:bf:e1:5f:11:de:94:
                    d0:4a:5e:8b:a2:26:03:61:55:41:45:86:45:00:d8:
                    ea:34:f7:1f:21:64:f7:85:6b:a6:47:3e:f9:81:e4:
                    a6:6b
                Exponent: 65537 (0x10001)
        X509v3 extensions:
            X509v3 Basic Constraints: 
                CA:FALSE
            Netscape Comment: 
                OpenSSL Generated Certificate
            X509v3 Subject Key Identifier: 
                20:CD:11:1F:57:C3:33:FC:17:16:2D:32:48:16:47:B8:0F:42:2D:53
            X509v3 Authority Key Identifier: 
                keyid:CA:71:99:89:F0:72:AB:75:66:BB:65:6A:03:04:72:A5:7B:95:A6:93

    Signature Algorithm: sha256WithRSAEncryption
         b3:2d:b3:4f:a0:9a:48:ec:a9:06:97:8d:b4:af:93:13:a8:58:
         8f:4e:43:f1:4f:7b:13:59:d5:c6:dc:f0:f7:b8:f2:e8:47:28:
         e0:94:2d:cb:d1:de:58:a8:31:e7:41:f1:c3:9b:6e:21:c4:3e:
         2c:56:f7:8b:36:1e:b5:c9:40:aa:15:8b:32:33:29:e6:8e:3c:
         a2:db:ad:02:c2:cb:46:fa:4d:2b:43:51:97:00:bc:ad:83:b1:
         e9:69:7b:83:31:a8:ce:18:c9:a2:d3:a2:17:f5:f4:b2:3c:59:
         36:2d:6d:ee:21:bd:fa:24:cd:c5:96:26:41:66:6b:8a:ba:ff:
         25:60:44:64:43:f5:4d:df:61:4d:a1:7f:16:27:63:a4:9c:61:
         fc:d1:9e:9f:aa:e0:dd:dd:4f:64:2e:89:03:cd:a7:f4:b8:d0:
         d7:a5:72:46:fa:33:13:84:0f:a2:e1:fa:9a:a1:e4:6f:f4:30:
         fb:30:24:df:ac:d0:52:94:8d:92:3b:26:fe:1d:a0:30:da:23:
         05:3f:ef:f1:79:a8:b7:f9:73:42:5f:da:9d:f8:a8:28:b8:4f:
         e3:6e:50:81:46:e1:b4:a1:7e:ec:78:10:8c:be:2e:bc:21:6d:
         1a:78:df:3f:f9:a8:8e:67:0e:b6:cb:1e:fd:ed:d3:28:68:59:
         e3:d4:59:a8
-----BEGIN CERTIFICATE-----
MIIDpjCCAo6gAwIBAgIBAjANBgkqhkiG9w0BAQsFADBWMQ8wDQYDVQQDDAZjYWNl
cnQxCzAJBgNVBAYTAkZJMREwDwYDVQQIDAhIZWxzaW5raTERMA8GA1UEBwwISGVs
c2lua2kxEDAOBgNVBAoMB01hcmlhREIwHhcNMTkwMTI3MTAxMTEwWhcNMzkwMTIz
MTAxMTEwWjBaMQswCQYDVQQGEwJGSTERMA8GA1UECAwISGVsc2lua2kxETAPBgNV
BAcMCEhlbHNpbmtpMRAwDgYDVQQKDAdNYXJpYURCMRMwEQYDVQQDDApzZXJ2ZXIt
bmV3MIIBIjANBgkqhkiG9w0BAQEFAAOCAQ8AMIIBCgKCAQEA2FI1PksO/swXH7h5
XDXWoOPFESNbEn/DpE0PNXHhlIdJEeL0s4DcM8Bl9BskIbHE5da4HoP2P2t/qioY
oElsh+6038xYGQ9/BrOTzozeRmmA6ayeeQW94sa8gD9EfqjKCXLj5LCkVHkInPiw
7VY7IdrdiwYS3/u2Lg7KJ8Tei1Xik9b/CarwqY6DvpL7najEtifiYwM8DWtKBflv
HBTe88PvYJ+0IdZ0b6OlasCwTns3lQ32QwaVz8CTE9CBg1qqv4GYyk9wRnlChBIy
dOR/ToQTg1QVSUUd0UC/4V8R3pTQSl6LoiYDYVVBRYZFANjqNPcfIWT3hWumRz75
geSmawIDAQABo3sweTAJBgNVHRMEAjAAMCwGCWCGSAGG+EIBDQQfFh1PcGVuU1NM
IEdlbmVyYXRlZCBDZXJ0aWZpY2F0ZTAdBgNVHQ4EFgQUIM0RH1fDM/wXFi0ySBZH
uA9CLVMwHwYDVR0jBBgwFoAUynGZifByq3Vmu2VqAwRypXuVppMwDQYJKoZIhvcN
AQELBQADggEBALMts0+gmkjsqQaXjbSvkxOoWI9OQ/FPexNZ1cbc8Pe48uhHKOCU
LcvR3lioMedB8cObbiHEPixW94s2HrXJQKoVizIzKeaOPKLbrQLCy0b6TStDUZcA
vK2Dselpe4MxqM4YyaLTohf19LI8WTYtbe4hvfokzcWWJkFma4q6/yVgRGRD9U3f
YU2hfxYnY6ScYfzRnp+q4N3dT2QuiQPNp/S40Nelckb6MxOED6Lh+pqh5G/0MPsw
JN+s0FKUjZI7Jv4doDDaIwU/7/F5qLf5c0Jf2p34qCi4T+NuUIFG4bShfux4EIy+
LrwhbRp43z/5qI5nDrbLHv3t0yhoWePUWag=
-----END CERTIFICATE-----
