Certificate:
    Data:
        Version: 3 (0x2)
        Serial Number: 2 (0x2)
        Signature Algorithm: sha256WithRSAEncryption
        Issuer: CN=cacert, C=FI, ST=Helsinki, L=Helsinki, O=MariaDB
        Validity
            Not Before: Mar  3 03:03:03 2020 GMT
            Not After : Feb 28 03:03:03 2040 GMT
        Subject: C=FI, ST=Helsinki, L=Helsinki, O=MariaDB, CN=server-new
        Subject Public Key Info:
            Public Key Algorithm: rsaEncryption
                RSA Public-Key: (4096 bit)
                Modulus:
                    00:bb:a2:d6:cc:2d:ff:d1:91:03:41:0a:d9:e8:78:
                    cd:f7:6c:b7:8a:b0:37:e7:a2:79:c3:4e:08:da:f2:
                    ec:bd:ba:83:e8:e9:3d:56:56:8e:d3:b8:d7:f2:b4:
                    95:99:39:26:a5:b2:92:b0:09:5d:42:ee:61:06:45:
                    9c:e6:c6:f4:7a:ee:45:5f:bb:4b:29:1d:f2:1d:4b:
                    64:16:ca:c3:0c:58:95:1a:db:d4:54:f4:2d:d7:84:
                    76:69:75:cc:b1:a4:0b:4c:83:d5:ba:9f:f5:d0:d7:
                    58:b9:ed:35:da:b5:d1:88:1e:85:db:94:b7:2b:f3:
                    b7:a1:85:73:dc:92:b8:bb:80:79:85:e2:7e:d6:f6:
                    bb:72:fe:8c:65:64:35:99:8a:d9:74:c6:86:ef:ad:
                    61:cb:50:ff:1c:44:72:a0:42:c6:8f:19:60:ab:8f:
                    00:3b:6f:94:ae:be:88:70:72:61:80:4d:68:4f:c6:
                    54:9c:d6:a4:e3:85:a8:51:4f:76:dc:b1:5b:4b:c2:
                    ac:07:ec:12:4d:c8:ba:c7:b0:80:ef:57:00:75:4f:
                    b0:fa:c2:a1:70:4d:0d:75:c6:a9:3d:b8:1f:5b:fd:
                    0c:34:84:5c:4f:10:35:62:90:7b:d5:6b:b7:78:cd:
                    54:e2:13:ba:9f:81:c2:f1:84:e3:74:b3:27:46:4a:
                    ef:48:59:75:58:53:a9:92:e0:c8:3e:44:86:72:f0:
                    67:64:1a:72:db:33:68:bb:51:a4:39:9c:30:f4:38:
                    9f:c1:74:ab:57:6b:99:3b:e7:19:34:96:44:2b:f3:
                    7b:58:82:b7:eb:eb:74:5a:66:8e:be:68:2b:71:85:
                    01:b4:d5:0d:e0:1e:17:5f:e1:12:72:f3:71:d8:41:
                    9a:4e:be:a4:2c:bb:80:48:e9:2d:74:1e:57:12:d0:
                    90:c2:66:2d:1c:d1:7c:c7:e0:5d:7f:a0:a7:46:fb:
                    31:a7:37:c7:19:22:4f:f6:7f:8d:b8:d4:9b:f7:b1:
                    fa:6f:77:68:b2:e2:a1:e4:05:e9:22:79:09:f0:59:
                    21:c0:49:0e:1c:31:0e:3d:f4:1d:4e:d5:51:8f:e4:
                    40:66:a6:a0:63:0c:dc:66:5b:08:d6:6c:ee:2b:08:
                    7f:1e:a8:ac:10:69:8f:78:49:5e:8e:20:f1:81:c8:
                    b2:6a:36:4a:43:e2:0f:47:7b:8f:ba:06:52:2a:2d:
                    05:c0:03:f7:11:ed:ed:c1:e8:48:9c:3f:c1:cf:2c:
                    88:c8:57:de:81:e3:59:2e:db:51:6e:23:0d:7e:a8:
                    75:a4:6d:cd:9e:56:7f:19:f9:43:ee:2b:3a:dd:c5:
                    af:e9:1a:3e:1d:dc:57:a3:dd:56:14:ed:ff:33:40:
                    0f:c3:e9
                Exponent: 65537 (0x10001)
        X509v3 extensions:
            X509v3 Basic Constraints: 
                CA:FALSE
            Netscape Comment: 
                OpenSSL Generated Certificate
            X509v3 Subject Key Identifier: 
                41:73:D1:5E:AA:7D:59:3C:6F:4D:43:E8:20:AE:A1:D3:9C:26:B1:C4
            X509v3 Authority Key Identifier: 
                keyid:4D:FC:7A:19:F3:2B:0C:7D:F6:C0:7C:4D:F8:72:34:4C:8C:35:52:74

    Signature Algorithm: sha256WithRSAEncryption
         49:7c:18:c2:1b:5b:de:5e:15:84:18:f6:6b:1c:03:d6:8e:75:
         34:f6:6c:0c:e3:64:60:65:6e:19:1d:26:3b:c8:ed:96:99:30:
         19:7e:3d:d9:c5:a1:19:8e:c6:15:c1:60:74:7e:b6:8b:78:d8:
         46:43:f7:ad:b0:96:fa:51:4e:52:c2:67:da:da:a8:70:f3:40:
         c5:80:b4:cc:36:18:81:98:d2:af:94:bc:82:ba:4a:7e:e6:d6:
         a3:4b:2b:6f:f6:45:b3:82:07:2b:32:68:7a:d5:fc:7d:70:75:
         7b:4e:b6:33:4c:3d:c2:46:3b:89:c8:77:d8:8d:da:20:88:1d:
         0c:76:2a:79:92:9c:91:44:44:c8:c7:5e:53:8c:d3:29:f6:e9:
         3e:26:9f:47:ac:ca:03:4a:90:ba:c7:ba:0e:31:61:fe:89:af:
         2b:eb:07:aa:7d:10:fd:f5:f0:ba:09:f0:58:1b:86:9b:d2:0b:
         b8:c8:db:f4:be:6c:ba:96:dd:3c:5d:7f:ec:4b:8e:93:46:b4:
         78:d2:c7:02:c7:26:e5:d9:ba:3d:93:3f:85:ea:bc:3a:ab:54:
         bf:d5:2c:6a:49:f4:d7:d4:72:cd:5d:33:d2:cf:c8:c6:98:1e:
         d2:de:72:53:8c:c3:47:f7:43:aa:ca:0f:ca:0f:24:d0:7a:0f:
         43:fa:9c:cc:2a:39:2b:0f:ee:89:91:91:6b:e7:89:80:fd:bf:
         87:c2:9f:0a:7d:f5:e1:33:72:8e:02:35:d4:c6:ec:1d:e7:e0:
         f2:9b:ff:c3:d0:f2:ae:52:9a:41:87:65:24:d4:2e:3d:61:fb:
         ef:6d:9a:e9:b2:09:af:6b:d9:72:1a:c5:e7:45:1f:4d:bb:2a:
         9e:af:25:b8:cd:d0:fc:43:70:45:55:a0:23:4e:23:00:de:65:
         dc:f6:bb:d9:a3:b3:61:28:5c:10:09:c1:ca:d5:63:4d:cb:e0:
         1b:36:e1:e6:4c:25:1f:c2:00:d2:93:1f:c4:c9:64:b0:0d:dd:
         fb:dd:b4:0a:57:24:8a:d5:20:c3:d2:54:a3:c3:8e:c1:e7:c4:
         fe:30:14:dc:f2:69:6c:8b:67:1f:2b:a7:90:bb:da:f7:81:0d:
         33:24:3a:21:d6:5d:7f:ed:9a:b1:99:47:8e:42:53:f4:e1:86:
         da:15:c3:88:bf:e6:4e:29:48:b3:bf:2e:ac:ef:b9:04:74:2f:
         48:b7:13:ef:fa:92:a5:93:99:e1:0e:3b:86:d1:3b:f9:49:b0:
         ad:b9:e4:88:e6:db:10:58:5e:b3:61:bf:5c:74:ef:a0:76:99:
         2e:0f:b8:68:01:9e:32:ae:af:cf:14:45:af:45:0a:f0:b7:f9:
         41:3b:45:52:7b:a0:44:eb
-----BEGIN CERTIFICATE-----
MIIFpjCCA46gAwIBAgIBAjANBgkqhkiG9w0BAQsFADBWMQ8wDQYDVQQDDAZjYWNl
cnQxCzAJBgNVBAYTAkZJMREwDwYDVQQIDAhIZWxzaW5raTERMA8GA1UEBwwISGVs
c2lua2kxEDAOBgNVBAoMB01hcmlhREIwHhcNMjAwMzAzMDMwMzAzWhcNNDAwMjI4
MDMwMzAzWjBaMQswCQYDVQQGEwJGSTERMA8GA1UECAwISGVsc2lua2kxETAPBgNV
BAcMCEhlbHNpbmtpMRAwDgYDVQQKDAdNYXJpYURCMRMwEQYDVQQDDApzZXJ2ZXIt
bmV3MIICIjANBgkqhkiG9w0BAQEFAAOCAg8AMIICCgKCAgEAu6LWzC3/0ZEDQQrZ
6HjN92y3irA356J5w04I2vLsvbqD6Ok9VlaO07jX8rSVmTkmpbKSsAldQu5hBkWc
5sb0eu5FX7tLKR3yHUtkFsrDDFiVGtvUVPQt14R2aXXMsaQLTIPVup/10NdYue01
2rXRiB6F25S3K/O3oYVz3JK4u4B5heJ+1va7cv6MZWQ1mYrZdMaG761hy1D/HERy
oELGjxlgq48AO2+Urr6IcHJhgE1oT8ZUnNak44WoUU923LFbS8KsB+wSTci6x7CA
71cAdU+w+sKhcE0NdcapPbgfW/0MNIRcTxA1YpB71Wu3eM1U4hO6n4HC8YTjdLMn
RkrvSFl1WFOpkuDIPkSGcvBnZBpy2zNou1GkOZww9DifwXSrV2uZO+cZNJZEK/N7
WIK36+t0WmaOvmgrcYUBtNUN4B4XX+EScvNx2EGaTr6kLLuASOktdB5XEtCQwmYt
HNF8x+Bdf6CnRvsxpzfHGSJP9n+NuNSb97H6b3dosuKh5AXpInkJ8FkhwEkOHDEO
PfQdTtVRj+RAZqagYwzcZlsI1mzuKwh/HqisEGmPeElejiDxgciyajZKQ+IPR3uP
ugZSKi0FwAP3Ee3twehInD/BzyyIyFfegeNZLttRbiMNfqh1pG3NnlZ/GflD7is6
3cWv6Ro+HdxXo91WFO3/M0APw+kCAwEAAaN7MHkwCQYDVR0TBAIwADAsBglghkgB
hvhCAQ0EHxYdT3BlblNTTCBHZW5lcmF0ZWQgQ2VydGlmaWNhdGUwHQYDVR0OBBYE
FEFz0V6qfVk8b01D6CCuodOcJrHEMB8GA1UdIwQYMBaAFE38ehnzKwx99sB8Tfhy
NEyMNVJ0MA0GCSqGSIb3DQEBCwUAA4ICAQBJfBjCG1veXhWEGPZrHAPWjnU09mwM
42RgZW4ZHSY7yO2WmTAZfj3ZxaEZjsYVwWB0fraLeNhGQ/etsJb6UU5Swmfa2qhw
80DFgLTMNhiBmNKvlLyCukp+5tajSytv9kWzggcrMmh61fx9cHV7TrYzTD3CRjuJ
yHfYjdogiB0Mdip5kpyRRETIx15TjNMp9uk+Jp9HrMoDSpC6x7oOMWH+ia8r6weq
fRD99fC6CfBYG4ab0gu4yNv0vmy6lt08XX/sS46TRrR40scCxybl2bo9kz+F6rw6
q1S/1SxqSfTX1HLNXTPSz8jGmB7S3nJTjMNH90Oqyg/KDyTQeg9D+pzMKjkrD+6J
kZFr54mA/b+Hwp8KffXhM3KOAjXUxuwd5+Dym//D0PKuUppBh2Uk1C49YfvvbZrp
sgmva9lyGsXnRR9NuyqeryW4zdD8Q3BFVaAjTiMA3mXc9rvZo7NhKFwQCcHK1WNN
y+AbNuHmTCUfwgDSkx/EyWSwDd373bQKVySK1SDD0lSjw47B58T+MBTc8mlsi2cf
K6eQu9r3gQ0zJDoh1l1/7ZqxmUeOQlP04YbaFcOIv+ZOKUizvy6s77kEdC9ItxPv
+pKlk5nhDjuG0Tv5SbCtueSI5tsQWF6zYb9cdO+gdpkuD7hoAZ4yrq/PFEWvRQrw
t/lBO0VSe6BE6w==
-----END CERTIFICATE-----
