Certificate:
    Data:
        Version: 3 (0x2)
        Serial Number: 4 (0x4)
    Signature Algorithm: sha256WithRSAEncryption
        Issuer: CN=cacert, C=FI, ST=Helsinki, L=Helsinki, O=MariaDB
        Validity
            Not Before: Jan 27 10:11:15 2019 GMT
            Not After : Jan 22 10:11:15 2039 GMT
        Subject: C=FI, ST=Helsinki, L=Helsinki, O=MariaDB, CN=server
        Subject Public Key Info:
            Public Key Algorithm: rsaEncryption
                Public-Key: (2048 bit)
                Modulus:
                    00:be:e7:9b:da:e1:bf:fe:e6:a4:6d:c2:20:8a:1f:
                    ea:8e:1a:a6:3f:57:93:75:d8:3b:80:55:bd:f3:fe:
                    c3:1e:50:0f:e9:66:0e:bf:98:98:5f:06:95:fc:4a:
                    9a:b2:fc:7f:b1:e0:d9:ef:df:6c:28:d0:12:98:bf:
                    78:b6:f4:1a:94:83:a0:3e:bc:d3:b3:02:4f:4a:96:
                    d9:30:b5:7c:5a:82:dd:ff:96:72:1c:f5:ad:80:bd:
                    ec:f7:fa:9c:40:e2:37:f5:86:b7:c6:b0:bb:6a:69:
                    77:77:e1:2a:b1:03:bb:1e:bb:e8:b3:7a:2c:bf:a6:
                    c5:6b:4d:99:fb:f3:84:ec:ac:a9:2a:f3:f5:09:4e:
                    5b:75:18:9c:68:f7:c9:2b:59:0b:41:33:60:23:fa:
                    d4:f8:64:e2:51:59:37:29:f2:bb:68:f5:6a:47:69:
                    58:ed:a8:bb:11:9d:6b:d1:77:75:01:da:57:5d:3e:
                    8e:bf:f7:b1:7b:69:df:53:22:5f:7d:c5:ac:b0:80:
                    0c:20:ea:9d:f7:c4:52:d8:31:03:07:b8:84:a9:74:
                    e3:2e:4a:68:bf:a1:84:c6:38:32:c1:11:ef:f9:4b:
                    e6:79:f4:7b:7f:52:f3:36:4b:a6:d8:a5:ad:d2:02:
                    40:89:42:ed:ba:d6:ea:74:d0:6e:c1:bc:02:33:9f:
                    0b:ab
                Exponent: 65537 (0x10001)
        X509v3 extensions:
            X509v3 Subject Alternative Name: 
                DNS:localhost
    Signature Algorithm: sha256WithRSAEncryption
         73:fa:07:e9:05:65:28:2e:72:91:29:f8:6b:a6:11:2e:e3:e2:
         14:6c:4d:7e:69:16:01:47:55:df:88:8d:be:82:37:bd:95:4e:
         cc:9c:71:98:fa:3b:0d:ad:13:53:e7:04:e7:6f:38:97:ce:12:
         c1:f1:c2:48:bc:3f:a9:61:b5:22:48:e1:8c:64:1f:58:14:e9:
         dd:5d:9f:e3:e7:78:5f:7d:43:6a:89:21:38:9d:65:e8:71:c1:
         62:d9:62:c7:e6:b3:bd:cb:de:f1:7c:46:10:53:28:8c:47:02:
         22:91:ad:78:c0:21:10:28:a8:2c:23:a3:f2:c0:2c:c9:71:0d:
         b4:a0:ca:37:ac:36:b3:1c:75:6a:74:85:a5:ba:c2:19:de:e4:
         3e:c2:3c:a4:cc:dc:8e:a7:08:36:f4:e9:81:32:ac:49:f4:34:
         89:84:e7:61:54:29:7b:c0:54:53:b9:73:37:58:21:32:56:01:
         7f:97:d3:a1:06:5b:06:14:19:6a:42:5d:45:5a:ba:8e:14:d7:
         df:49:46:f2:83:7a:f0:d6:25:52:37:39:ae:37:ea:67:5f:7f:
         7b:6d:f1:42:c9:0f:44:4d:f7:39:2d:39:78:12:93:42:1b:4a:
         6d:f8:76:48:78:41:e9:a1:0b:78:fd:ad:29:f1:28:62:b8:9f:
         f7:22:39:3b
-----BEGIN CERTIFICATE-----
MIIDPzCCAiegAwIBAgIBBDANBgkqhkiG9w0BAQsFADBWMQ8wDQYDVQQDDAZjYWNl
cnQxCzAJBgNVBAYTAkZJMREwDwYDVQQIDAhIZWxzaW5raTERMA8GA1UEBwwISGVs
c2lua2kxEDAOBgNVBAoMB01hcmlhREIwHhcNMTkwMTI3MTAxMTE1WhcNMzkwMTIy
MTAxMTE1WjBWMQswCQYDVQQGEwJGSTERMA8GA1UECAwISGVsc2lua2kxETAPBgNV
BAcMCEhlbHNpbmtpMRAwDgYDVQQKDAdNYXJpYURCMQ8wDQYDVQQDDAZzZXJ2ZXIw
ggEiMA0GCSqGSIb3DQEBAQUAA4IBDwAwggEKAoIBAQC+55va4b/+5qRtwiCKH+qO
GqY/V5N12DuAVb3z/sMeUA/pZg6/mJhfBpX8Spqy/H+x4Nnv32wo0BKYv3i29BqU
g6A+vNOzAk9KltkwtXxagt3/lnIc9a2Avez3+pxA4jf1hrfGsLtqaXd34SqxA7se
u+izeiy/psVrTZn784TsrKkq8/UJTlt1GJxo98krWQtBM2Aj+tT4ZOJRWTcp8rto
9WpHaVjtqLsRnWvRd3UB2lddPo6/97F7ad9TIl99xaywgAwg6p33xFLYMQMHuISp
dOMuSmi/oYTGODLBEe/5S+Z59Ht/UvM2S6bYpa3SAkCJQu261up00G7BvAIznwur
AgMBAAGjGDAWMBQGA1UdEQQNMAuCCWxvY2FsaG9zdDANBgkqhkiG9w0BAQsFAAOC
AQEAc/oH6QVlKC5ykSn4a6YRLuPiFGxNfmkWAUdV34iNvoI3vZVOzJxxmPo7Da0T
U+cE5284l84SwfHCSLw/qWG1IkjhjGQfWBTp3V2f4+d4X31DaokhOJ1l6HHBYtli
x+azvcve8XxGEFMojEcCIpGteMAhECioLCOj8sAsyXENtKDKN6w2sxx1anSFpbrC
Gd7kPsI8pMzcjqcINvTpgTKsSfQ0iYTnYVQpe8BUU7lzN1ghMlYBf5fToQZbBhQZ
akJdRVq6jhTX30lG8oN68NYlUjc5rjfqZ19/e23xQskPRE33OS05eBKTQhtKbfh2
SHhB6aELeP2tKfEoYrif9yI5Ow==
-----END CERTIFICATE-----
