Certificate:
    Data:
        Version: 3 (0x2)
        Serial Number: 2 (0x2)
    Signature Algorithm: sha256WithRSAEncryption
        Issuer: CN=cacert, C=FI, ST=Helsinki, L=Helsinki, O=MariaDB
        Validity
            Not Before: Apr 25 20:52:33 2017 GMT
            Not After : Apr 20 20:52:33 2037 GMT
        Subject: C=FI, ST=Helsinki, L=Helsinki, O=MariaDB, CN=server8k
        Subject Public Key Info:
            Public Key Algorithm: rsaEncryption
                Public-Key: (8192 bit)
                Modulus:
                    00:b3:a7:81:cf:a3:9b:3c:57:2a:8e:de:13:08:a6:
                    15:6a:68:08:ce:a1:a0:ef:fc:32:95:5a:9a:b5:cc:
                    84:bb:a3:15:a0:fc:29:bb:71:0e:f3:40:20:97:35:
                    92:92:89:36:6a:5f:be:a5:24:5a:c8:0e:f7:53:a8:
                    e0:74:05:90:38:21:a5:25:72:2b:56:70:74:aa:d6:
                    30:25:e0:95:dd:3d:4a:48:4b:25:a7:a8:c4:eb:e5:
                    d6:10:4f:95:42:91:b0:cb:68:2f:bf:96:0f:0a:9b:
                    2b:01:0d:03:ae:3f:b7:7e:f6:1e:c1:14:42:04:7f:
                    09:21:e8:3e:87:c0:b3:d7:dd:4f:7e:95:b6:83:33:
                    8f:cc:f4:bb:11:8e:66:5f:b4:32:22:8b:8e:34:93:
                    82:0f:02:d1:6f:85:b2:a7:7e:36:0c:f3:0d:91:46:
                    f9:a5:91:dc:60:4a:0d:eb:e5:37:e3:76:d8:13:bb:
                    55:33:23:4c:b3:90:df:6a:b6:80:3d:f6:bd:9d:bd:
                    ef:d3:8d:7a:9a:61:ac:02:3d:10:b5:c2:53:d2:7e:
                    ee:1c:90:a5:b0:e8:db:71:8f:d3:53:e4:80:b0:b6:
                    cc:b0:f2:eb:46:c3:d9:3c:48:01:1d:3a:5c:d0:f2:
                    17:9c:9a:8e:fc:2a:36:e7:1c:59:41:66:ad:e1:d3:
                    82:d8:95:ee:ae:dc:ab:72:94:cb:0b:8a:df:ef:70:
                    f7:f9:e2:77:76:64:67:2d:02:dc:1a:db:02:e9:5e:
                    63:3f:3e:07:e9:65:e4:02:78:62:55:e1:52:18:5a:
                    a3:9c:56:dd:cd:d3:f7:f2:55:45:62:20:ce:fd:41:
                    93:b9:c2:20:90:23:a4:41:4f:30:5c:5e:a0:97:6f:
                    a4:1f:87:6a:97:87:70:f9:d5:56:b7:6a:cc:f1:28:
                    d2:26:34:57:65:9c:2d:41:43:8b:6c:bd:15:6f:ec:
                    ce:3e:9f:4d:2f:a6:21:d8:f7:4d:d1:63:4f:f0:9e:
                    04:c3:82:33:58:34:20:4b:81:0d:42:0d:44:62:48:
                    1b:4c:cf:e0:69:e4:c8:f8:9c:98:1f:74:37:3a:3f:
                    23:40:3a:88:80:c2:9c:9b:ba:6a:b9:2c:3a:67:a6:
                    b6:5c:83:fd:93:3f:6e:53:19:48:e3:3d:fa:f5:8e:
                    03:40:8f:e6:af:c5:de:aa:f8:70:77:36:2b:6e:3a:
                    df:bc:d7:f6:c7:4f:02:7f:a1:ad:2f:3c:e9:08:45:
                    2f:57:1a:f1:5b:9c:27:07:3a:44:43:3e:05:b1:4a:
                    1b:42:a4:90:ab:ce:4b:f7:c1:9b:d7:dd:6f:05:11:
                    f9:e8:a3:a1:99:6c:2e:27:3d:b1:54:6f:eb:b2:e8:
                    f8:e6:12:6f:8a:69:05:cc:c6:f6:c4:2d:b0:06:b6:
                    21:50:28:50:dc:8c:b2:8c:65:ce:d9:2b:51:b8:62:
                    56:70:b4:46:4d:e4:4c:a1:86:31:3d:e3:07:7f:73:
                    e3:09:6e:ee:a7:29:2a:80:23:8a:b6:0c:22:9e:43:
                    1c:a9:8c:47:2c:02:6d:13:ef:88:a7:d7:d1:60:d9:
                    6b:28:80:97:8a:b7:ff:62:6b:28:54:0d:ab:63:3a:
                    ac:57:9e:2f:95:2b:f4:a0:3d:a1:60:a0:57:1a:09:
                    23:ee:fc:4d:9b:45:83:f2:0a:1f:b3:77:0e:98:20:
                    b3:16:fc:97:03:30:fc:ab:3e:7e:fc:3e:76:64:cb:
                    4b:4d:c9:6c:8f:aa:70:ec:03:c5:81:31:43:11:9a:
                    fc:2d:ba:25:94:0b:73:7e:c1:39:01:ca:68:70:1a:
                    ef:a4:ba:dc:13:d6:37:17:09:0d:ca:aa:21:94:bb:
                    3e:43:fd:8c:80:e6:58:fd:75:23:5a:ca:1f:0b:2e:
                    35:c2:cd:77:0c:73:b3:2f:9a:e4:03:68:58:c8:3f:
                    f3:76:8d:05:53:d2:34:db:09:af:70:ed:67:0b:ff:
                    2f:64:35:2d:71:22:7a:f2:f2:2b:7d:6d:be:80:bd:
                    18:38:37:01:67:a4:5f:48:29:52:78:9f:b5:b8:80:
                    70:ca:10:6a:e1:27:3b:c0:61:4e:96:f8:e8:0f:42:
                    b1:fa:bc:05:ef:31:91:38:ab:0f:a7:ef:2c:86:c1:
                    ab:85:36:7c:10:9d:c7:0a:6b:e6:2b:11:dd:fa:45:
                    e7:d2:c3:3a:c1:cd:60:27:68:26:d7:87:49:5f:e3:
                    7f:26:20:1f:99:a8:f9:00:a6:0d:d5:13:81:6e:fc:
                    27:8a:03:58:6b:0e:3a:c7:20:a1:5c:24:d1:08:a6:
                    5a:1e:e7:81:3d:21:05:2e:4b:5d:18:14:f1:4f:ab:
                    5c:e5:81:da:c1:2c:f6:12:ff:25:09:97:1e:9d:51:
                    6d:1f:63:2e:9c:ed:7d:86:45:b0:35:73:f6:9f:82:
                    65:bc:7f:46:88:e1:a1:60:a1:37:50:26:9c:d7:76:
                    f3:dc:94:89:6d:d7:be:a6:17:a1:2b:71:14:37:17:
                    5f:ed:5a:39:99:fc:69:af:bb:63:55:c6:60:7b:64:
                    d8:bb:b7:4a:9f:b9:aa:89:4b:30:1f:9c:ef:23:7a:
                    af:7e:31:dd:fb:dd:0a:d5:04:0a:8c:57:6f:64:80:
                    eb:f3:ee:6c:33:d2:72:c2:24:68:a2:4e:99:88:1c:
                    f7:3b:5d:10:cc:4e:ea:a5:cb:00:40:8a:a9:63:2e:
                    18:92:eb:b1:28:05:fe:19:ea:7b:32:fb:63:56:2c:
                    0b:20:01:92:a3
                Exponent: 65537 (0x10001)
        X509v3 extensions:
            X509v3 Basic Constraints: 
                CA:FALSE
            Netscape Comment: 
                OpenSSL Generated Certificate
            X509v3 Subject Key Identifier: 
                43:3B:26:15:A5:60:62:3F:07:2A:8C:8C:DA:F8:74:BE:36:B2:33:E4
            X509v3 Authority Key Identifier: 
                keyid:1C:C7:2B:AA:1B:B1:BB:2E:9A:F4:0F:B1:86:60:57:38:C2:41:05:12

    Signature Algorithm: sha256WithRSAEncryption
         5c:c7:4e:56:eb:21:1b:f3:5d:c4:56:fa:bf:6d:e1:0d:fa:cc:
         b0:7c:13:58:b9:d4:47:b3:de:b4:ae:f2:45:02:88:65:43:89:
         cf:ea:9c:d0:ea:45:42:35:d2:ec:bc:b4:73:03:db:85:7b:c7:
         f0:68:d7:dc:2b:70:71:63:ed:33:68:9f:29:ff:67:0a:69:3b:
         c4:65:7c:25:00:cf:7f:ee:aa:fe:44:19:70:f2:74:db:da:9f:
         52:92:1a:03:e6:0a:49:85:2e:2a:02:c1:81:d4:6d:cf:98:d1:
         e9:6a:2f:bb:fa:a6:d5:4b:55:38:c2:aa:8c:f5:d3:f9:e6:74:
         db:00:d6:29:f9:d1:9c:7a:0e:98:c5:e5:8c:16:49:d8:cf:ee:
         a0:cb:c2:2c:31:cf:62:2c:b1:7f:6d:60:b0:ce:d5:07:45:e8:
         44:17:7c:c4:12:fb:00:57:24:57:e8:17:78:3b:1e:0d:91:aa:
         67:98:d0:e5:9a:86:4b:88:4a:2f:55:5d:2e:13:ec:f5:4a:7d:
         e7:13:a7:57:03:41:2f:f6:6c:08:8e:58:ef:b0:7a:79:32:e3:
         bb:4b:eb:4d:42:cd:42:96:2d:67:f6:4c:c1:f6:62:fb:c0:3e:
         09:69:8f:36:7e:fa:c8:cd:ff:72:3e:df:92:f7:8f:44:cf:77:
         fe:6e:74:de
-----BEGIN CERTIFICATE-----
MIIGpDCCBYygAwIBAgIBAjANBgkqhkiG9w0BAQsFADBWMQ8wDQYDVQQDDAZjYWNl
cnQxCzAJBgNVBAYTAkZJMREwDwYDVQQIDAhIZWxzaW5raTERMA8GA1UEBwwISGVs
c2lua2kxEDAOBgNVBAoMB01hcmlhREIwHhcNMTcwNDI1MjA1MjMzWhcNMzcwNDIw
MjA1MjMzWjBYMQswCQYDVQQGEwJGSTERMA8GA1UECAwISGVsc2lua2kxETAPBgNV
BAcMCEhlbHNpbmtpMRAwDgYDVQQKDAdNYXJpYURCMREwDwYDVQQDDAhzZXJ2ZXI4
azCCBCIwDQYJKoZIhvcNAQEBBQADggQPADCCBAoCggQBALOngc+jmzxXKo7eEwim
FWpoCM6hoO/8MpVamrXMhLujFaD8KbtxDvNAIJc1kpKJNmpfvqUkWsgO91Oo4HQF
kDghpSVyK1ZwdKrWMCXgld09SkhLJaeoxOvl1hBPlUKRsMtoL7+WDwqbKwENA64/
t372HsEUQgR/CSHoPofAs9fdT36VtoMzj8z0uxGOZl+0MiKLjjSTgg8C0W+Fsqd+
NgzzDZFG+aWR3GBKDevlN+N22BO7VTMjTLOQ32q2gD32vZ2979ONepphrAI9ELXC
U9J+7hyQpbDo23GP01PkgLC2zLDy60bD2TxIAR06XNDyF5yajvwqNuccWUFmreHT
gtiV7q7cq3KUywuK3+9w9/nid3ZkZy0C3BrbAuleYz8+B+ll5AJ4YlXhUhhao5xW
3c3T9/JVRWIgzv1Bk7nCIJAjpEFPMFxeoJdvpB+HapeHcPnVVrdqzPEo0iY0V2Wc
LUFDi2y9FW/szj6fTS+mIdj3TdFjT/CeBMOCM1g0IEuBDUINRGJIG0zP4GnkyPic
mB90Nzo/I0A6iIDCnJu6arksOmemtlyD/ZM/blMZSOM9+vWOA0CP5q/F3qr4cHc2
K24637zX9sdPAn+hrS886QhFL1ca8VucJwc6REM+BbFKG0KkkKvOS/fBm9fdbwUR
+eijoZlsLic9sVRv67Lo+OYSb4ppBczG9sQtsAa2IVAoUNyMsoxlztkrUbhiVnC0
Rk3kTKGGMT3jB39z4wlu7qcpKoAjirYMIp5DHKmMRywCbRPviKfX0WDZayiAl4q3
/2JrKFQNq2M6rFeeL5Ur9KA9oWCgVxoJI+78TZtFg/IKH7N3Dpggsxb8lwMw/Ks+
fvw+dmTLS03JbI+qcOwDxYExQxGa/C26JZQLc37BOQHKaHAa76S63BPWNxcJDcqq
IZS7PkP9jIDmWP11I1rKHwsuNcLNdwxzsy+a5ANoWMg/83aNBVPSNNsJr3DtZwv/
L2Q1LXEievLyK31tvoC9GDg3AWekX0gpUniftbiAcMoQauEnO8BhTpb46A9Csfq8
Be8xkTirD6fvLIbBq4U2fBCdxwpr5isR3fpF59LDOsHNYCdoJteHSV/jfyYgH5mo
+QCmDdUTgW78J4oDWGsOOscgoVwk0QimWh7ngT0hBS5LXRgU8U+rXOWB2sEs9hL/
JQmXHp1RbR9jLpztfYZFsDVz9p+CZbx/RojhoWChN1AmnNd289yUiW3XvqYXoStx
FDcXX+1aOZn8aa+7Y1XGYHtk2Lu3Sp+5qolLMB+c7yN6r34x3fvdCtUECoxXb2SA
6/PubDPScsIkaKJOmYgc9ztdEMxO6qXLAECKqWMuGJLrsSgF/hnqezL7Y1YsCyAB
kqMCAwEAAaN7MHkwCQYDVR0TBAIwADAsBglghkgBhvhCAQ0EHxYdT3BlblNTTCBH
ZW5lcmF0ZWQgQ2VydGlmaWNhdGUwHQYDVR0OBBYEFEM7JhWlYGI/ByqMjNr4dL42
sjPkMB8GA1UdIwQYMBaAFBzHK6obsbsumvQPsYZgVzjCQQUSMA0GCSqGSIb3DQEB
CwUAA4IBAQBcx05W6yEb813EVvq/beEN+sywfBNYudRHs960rvJFAohlQ4nP6pzQ
6kVCNdLsvLRzA9uFe8fwaNfcK3BxY+0zaJ8p/2cKaTvEZXwlAM9/7qr+RBlw8nTb
2p9SkhoD5gpJhS4qAsGB1G3PmNHpai+7+qbVS1U4wqqM9dP55nTbANYp+dGceg6Y
xeWMFknYz+6gy8IsMc9iLLF/bWCwztUHRehEF3zEEvsAVyRX6Bd4Ox4NkapnmNDl
moZLiEovVV0uE+z1Sn3nE6dXA0Ev9mwIjljvsHp5MuO7S+tNQs1Cli1n9kzB9mL7
wD4JaY82fvrIzf9yPt+S949Ez3f+bnTe
-----END CERTIFICATE-----
