Certificate:
    Data:
        Version: 3 (0x2)
        Serial Number: 4 (0x4)
        Signature Algorithm: sha256WithRSAEncryption
        Issuer: CN=cacert, C=FI, ST=Helsinki, L=Helsinki, O=MariaDB
        Validity
            Not Before: Mar  3 03:03:03 2020 GMT
            Not After : Feb 27 03:03:03 2040 GMT
        Subject: C=FI, ST=Helsinki, L=Helsinki, O=MariaDB, CN=server
        Subject Public Key Info:
            Public Key Algorithm: rsaEncryption
                RSA Public-Key: (4096 bit)
                Modulus:
                    00:d5:1d:45:7c:8d:47:ef:86:cb:c2:46:3d:3e:77:
                    00:36:b0:d6:2c:02:8c:d0:c1:6d:f9:89:62:2b:e1:
                    30:c8:b5:1f:53:27:ee:b6:22:c9:bc:3a:33:6f:2e:
                    65:79:09:16:07:ac:dc:0e:d8:25:9d:55:e9:a3:a1:
                    f2:69:16:eb:93:a9:a2:82:ca:4a:30:c7:a8:56:b7:
                    3d:b2:27:f7:a4:fe:0f:2c:15:79:a8:8f:74:1f:e5:
                    34:be:1c:b5:33:85:04:3b:29:8d:e5:67:ae:9b:6b:
                    95:1f:4d:9c:4d:7e:fd:51:19:04:47:22:da:4c:87:
                    1c:e1:8f:12:95:86:1f:1c:ff:13:b2:46:14:d8:3d:
                    03:96:ab:a6:e3:3e:cc:17:61:8a:9f:fe:e5:22:e2:
                    be:38:2c:b4:68:9e:ff:d5:ba:98:94:08:78:50:7d:
                    43:e0:e3:d3:de:ad:0d:1e:96:a7:7b:aa:72:c1:f1:
                    fc:dc:44:03:8c:56:79:a2:22:db:49:7e:f5:08:c6:
                    2e:4b:df:33:00:68:f1:50:ef:71:07:c7:d8:59:6f:
                    54:ef:17:bd:5a:21:1e:4a:81:cd:f3:2a:09:aa:88:
                    be:b3:c7:4f:16:80:83:08:bb:e3:b7:d2:5b:ef:b7:
                    4b:cd:99:3e:cd:72:3b:72:04:49:a5:ae:71:7f:e8:
                    e9:7e:8f:22:4e:f5:06:55:b5:d5:a0:c3:c4:2d:fa:
                    cb:c0:52:2f:dc:15:08:cc:65:8e:0c:a9:60:57:d6:
                    e8:24:a1:87:ec:c0:b7:88:8f:4b:ca:51:ad:ba:f3:
                    5d:6a:42:d5:77:9b:ef:8b:3d:5e:31:e9:0f:8f:9e:
                    a5:9f:59:bd:62:ed:8c:2b:44:15:92:7c:69:38:92:
                    23:ce:d9:19:5f:ce:d5:c4:57:cd:85:66:a7:c8:dc:
                    8f:7f:ce:d8:95:a6:a4:73:7c:23:7d:1b:fc:e6:0e:
                    cc:83:2a:b6:cf:ee:8f:90:8d:0d:60:b9:ad:08:78:
                    48:c7:e5:d3:0c:9c:78:95:b9:aa:b1:e1:57:a3:91:
                    02:96:d7:1d:0f:75:92:0b:1d:95:1f:50:88:ee:92:
                    92:5d:bb:69:36:9f:72:f2:4e:7a:a9:53:07:41:77:
                    2d:00:85:24:0f:4e:1d:66:a4:ee:4a:21:5c:7f:60:
                    05:1b:d5:1a:ef:7d:e6:49:68:5b:6f:64:6a:1d:6b:
                    ef:c1:f5:c2:15:b2:25:7d:bd:93:49:ce:09:95:76:
                    bd:17:ae:07:f6:8e:5b:11:a7:40:36:84:fe:f9:b5:
                    5e:e5:17:c2:5d:0e:93:53:b1:df:11:d6:1a:08:06:
                    d9:0f:25:54:f9:54:6d:61:a1:bd:94:a3:e0:3d:69:
                    f1:16:ff
                Exponent: 65537 (0x10001)
        X509v3 extensions:
            X509v3 Subject Alternative Name: 
                IP Address:127.0.0.1, DNS:localhost
    Signature Algorithm: sha256WithRSAEncryption
         ac:c4:e6:b0:79:a7:31:09:78:47:45:90:ee:8b:bd:01:83:79:
         51:e8:d0:88:c8:ca:ee:78:44:f8:0d:18:07:58:ed:9e:ec:cc:
         a1:fc:65:ca:85:92:5f:12:a0:c3:4e:9b:22:b1:de:5f:22:c8:
         2c:68:58:a9:62:f3:90:e7:48:61:c1:5e:5e:d2:84:a9:54:ea:
         6a:d4:be:65:cd:4d:7e:c3:d2:6a:ea:69:63:b8:97:b6:c5:30:
         7d:6b:d3:ca:b4:b1:9d:cf:ef:18:e7:de:81:4f:70:d8:ec:91:
         19:53:6c:2c:6e:2e:d6:ce:7c:48:a0:77:7b:af:95:0f:31:fe:
         ff:1b:0e:06:1e:db:94:7b:44:11:58:53:06:b5:37:c5:5f:2b:
         61:63:b7:ff:12:c4:fc:10:df:95:eb:22:fd:b5:cb:68:24:80:
         af:fc:27:f0:ee:28:b7:99:c5:6a:ec:1c:16:25:35:23:9b:a7:
         ed:b2:ed:ff:69:47:60:f4:35:8e:20:2d:48:9d:18:cd:81:bc:
         33:98:76:78:de:5c:0c:40:9c:cb:0b:29:dc:2a:d2:77:a7:e4:
         02:ff:92:70:6e:5c:9a:61:8a:a5:29:d2:f0:a2:17:da:cc:43:
         cc:de:c8:8c:d1:30:74:32:4f:ea:a1:69:98:dd:3c:ef:18:f2:
         eb:32:96:6f:26:d6:46:b5:5b:85:e8:22:e0:33:10:64:44:5f:
         04:ed:5f:91:fe:83:23:b7:64:93:da:6b:05:f2:ef:aa:b8:1a:
         b5:16:29:61:96:8d:fd:f1:09:49:b9:6d:bd:8f:13:58:a1:3d:
         d9:0a:23:9e:a1:b0:a3:7c:4e:cb:4f:a6:1c:f8:6d:c4:06:47:
         f6:3a:2b:29:87:dd:be:1c:95:5d:51:6c:a7:9d:a8:cf:fd:4c:
         9c:b8:90:2b:fb:c5:01:f9:c1:74:79:52:be:bc:18:b7:63:ff:
         64:2c:7c:a5:03:37:c5:01:6e:59:16:2e:b8:6c:ca:7a:b6:54:
         e4:2d:07:cf:11:05:6d:d1:b7:32:8c:6a:8e:93:9a:0b:7b:37:
         18:67:9d:75:2f:cd:ac:3b:da:7f:f7:06:a7:00:37:f2:d2:2b:
         4c:4c:ce:a1:06:3c:be:ce:9b:a1:9f:7d:ea:7c:79:29:25:7a:
         1e:97:84:68:0a:3b:c6:20:3e:dc:0b:c4:63:7d:f5:26:9e:e8:
         23:a3:ce:17:65:86:29:3f:f4:dc:ba:5c:3b:2a:4a:ce:3d:23:
         d9:e3:56:4d:c7:61:80:b5:72:ca:32:c9:16:f8:96:84:5d:07:
         c7:a7:0b:99:32:9d:aa:38:12:cb:64:a8:af:45:c5:d9:6a:c2:
         c1:e2:c8:44:14:0c:0d:0d
-----BEGIN CERTIFICATE-----
MIIFRTCCAy2gAwIBAgIBBDANBgkqhkiG9w0BAQsFADBWMQ8wDQYDVQQDDAZjYWNl
cnQxCzAJBgNVBAYTAkZJMREwDwYDVQQIDAhIZWxzaW5raTERMA8GA1UEBwwISGVs
c2lua2kxEDAOBgNVBAoMB01hcmlhREIwHhcNMjAwMzAzMDMwMzAzWhcNNDAwMjI3
MDMwMzAzWjBWMQswCQYDVQQGEwJGSTERMA8GA1UECAwISGVsc2lua2kxETAPBgNV
BAcMCEhlbHNpbmtpMRAwDgYDVQQKDAdNYXJpYURCMQ8wDQYDVQQDDAZzZXJ2ZXIw
ggIiMA0GCSqGSIb3DQEBAQUAA4ICDwAwggIKAoICAQDVHUV8jUfvhsvCRj0+dwA2
sNYsAozQwW35iWIr4TDItR9TJ+62Ism8OjNvLmV5CRYHrNwO2CWdVemjofJpFuuT
qaKCykowx6hWtz2yJ/ek/g8sFXmoj3Qf5TS+HLUzhQQ7KY3lZ66ba5UfTZxNfv1R
GQRHItpMhxzhjxKVhh8c/xOyRhTYPQOWq6bjPswXYYqf/uUi4r44LLRonv/VupiU
CHhQfUPg49PerQ0elqd7qnLB8fzcRAOMVnmiIttJfvUIxi5L3zMAaPFQ73EHx9hZ
b1TvF71aIR5Kgc3zKgmqiL6zx08WgIMIu+O30lvvt0vNmT7NcjtyBEmlrnF/6Ol+
jyJO9QZVtdWgw8Qt+svAUi/cFQjMZY4MqWBX1ugkoYfswLeIj0vKUa26811qQtV3
m++LPV4x6Q+PnqWfWb1i7YwrRBWSfGk4kiPO2RlfztXEV82FZqfI3I9/ztiVpqRz
fCN9G/zmDsyDKrbP7o+QjQ1gua0IeEjH5dMMnHiVuaqx4VejkQKW1x0PdZILHZUf
UIjukpJdu2k2n3LyTnqpUwdBdy0AhSQPTh1mpO5KIVx/YAUb1RrvfeZJaFtvZGod
a+/B9cIVsiV9vZNJzgmVdr0Xrgf2jlsRp0A2hP75tV7lF8JdDpNTsd8R1hoIBtkP
JVT5VG1hob2Uo+A9afEW/wIDAQABox4wHDAaBgNVHREEEzARhwR/AAABgglsb2Nh
bGhvc3QwDQYJKoZIhvcNAQELBQADggIBAKzE5rB5pzEJeEdFkO6LvQGDeVHo0IjI
yu54RPgNGAdY7Z7szKH8ZcqFkl8SoMNOmyKx3l8iyCxoWKli85DnSGHBXl7ShKlU
6mrUvmXNTX7D0mrqaWO4l7bFMH1r08q0sZ3P7xjn3oFPcNjskRlTbCxuLtbOfEig
d3uvlQ8x/v8bDgYe25R7RBFYUwa1N8VfK2Fjt/8SxPwQ35XrIv21y2gkgK/8J/Du
KLeZxWrsHBYlNSObp+2y7f9pR2D0NY4gLUidGM2BvDOYdnjeXAxAnMsLKdwq0nen
5AL/knBuXJphiqUp0vCiF9rMQ8zeyIzRMHQyT+qhaZjdPO8Y8usylm8m1ka1W4Xo
IuAzEGREXwTtX5H+gyO3ZJPaawXy76q4GrUWKWGWjf3xCUm5bb2PE1ihPdkKI56h
sKN8TstPphz4bcQGR/Y6KymH3b4clV1RbKedqM/9TJy4kCv7xQH5wXR5Ur68GLdj
/2QsfKUDN8UBblkWLrhsynq2VOQtB88RBW3RtzKMao6Tmgt7NxhnnXUvzaw72n/3
BqcAN/LSK0xMzqEGPL7Om6Gffep8eSkleh6XhGgKO8YgPtwLxGN99Sae6COjzhdl
hik/9Ny6XDsqSs49I9njVk3HYYC1csoyyRb4loRdB8enC5kynao4EstkqK9Fxdlq
wsHiyEQUDA0N
-----END CERTIFICATE-----
