Certificate:
    Data:
        Version: 3 (0x2)
        Serial Number: 3 (0x3)
        Signature Algorithm: sha256WithRSAEncryption
        Issuer: CN=cacert, C=FI, ST=Helsinki, L=Helsinki, O=MariaDB
        Validity
            Not Before: Mar  3 03:03:03 2020 GMT
            Not After : Feb 27 03:03:03 2040 GMT
        Subject: C=FI, ST=Helsinki, L=Helsinki, O=MariaDB, CN=server8k
        Subject Public Key Info:
            Public Key Algorithm: rsaEncryption
                RSA Public-Key: (8192 bit)
                Modulus:
                    00:ac:74:31:9c:0a:92:45:8a:ef:01:fe:fd:3e:7e:
                    c5:33:0b:e8:0f:af:8e:91:ff:6a:99:eb:df:88:4f:
                    8e:5e:07:52:6c:c3:1c:55:2c:c0:23:e4:7b:ba:8d:
                    c1:df:b8:1c:54:ce:3e:0e:d8:b9:37:66:48:8c:7d:
                    6d:9d:9b:1c:b9:10:39:4e:f4:3d:64:96:93:be:3e:
                    98:dd:c1:79:c7:bb:56:45:50:bb:ce:75:cd:39:1c:
                    fa:42:b9:f0:a6:ed:9a:ca:ef:5f:41:db:3d:83:de:
                    c0:51:6e:0e:82:31:f7:f8:97:53:b0:b3:74:1a:62:
                    69:1e:71:7e:dc:e6:bd:de:41:2f:b3:98:a0:c4:d4:
                    d9:7c:8b:c2:40:4a:63:bb:c0:5e:bc:0e:b9:53:34:
                    11:57:4f:0d:23:c4:86:92:34:cb:55:cb:06:53:19:
                    d5:51:b0:44:52:24:e8:03:a0:13:d8:3c:8a:b3:b9:
                    bc:0c:c1:f9:53:98:6d:8a:4e:9a:68:74:a2:b9:a5:
                    21:e7:27:77:ec:4b:b6:99:14:e8:d3:0b:d6:88:cf:
                    1e:ef:2e:53:c7:06:ee:a4:4d:42:e0:db:70:47:59:
                    ef:be:55:2a:b6:bb:e7:34:bf:10:fb:4d:71:90:12:
                    3f:6e:3a:2e:83:88:5a:8d:46:17:96:43:f0:dd:f5:
                    90:d6:1e:6b:bb:b2:17:06:38:b5:b6:1c:b8:1f:b8:
                    3d:96:82:6a:a6:28:10:d8:08:07:2e:fa:4f:de:3f:
                    6d:d6:e5:e5:e7:4f:f0:ef:83:d5:be:46:c2:3f:0a:
                    f1:1c:79:d1:5b:dd:89:69:a2:82:40:7d:39:3f:95:
                    5b:9c:72:d7:e7:ef:6b:fb:00:47:f0:02:90:47:b5:
                    ab:7a:76:15:3e:bd:8c:1d:bb:db:b4:cf:92:d8:c7:
                    fe:50:cc:d2:25:76:0a:f3:dd:01:95:dc:9b:51:f7:
                    8a:39:82:e3:ce:ef:76:5f:4d:e1:bf:fe:5b:91:1b:
                    71:91:b7:42:71:4a:7b:a1:96:d6:5a:5c:e1:09:3c:
                    17:db:37:f4:8e:87:f5:54:18:65:3c:f3:6d:9f:91:
                    7b:40:80:3b:04:cb:23:70:83:a8:65:03:97:0e:38:
                    01:56:37:80:9b:47:be:8e:44:61:27:ec:19:52:a1:
                    05:fb:ac:15:df:c7:df:11:70:a6:41:95:62:d5:c9:
                    02:2e:36:01:61:95:25:f7:d4:02:c9:39:54:43:72:
                    5f:7a:57:5f:ff:ae:b7:f8:43:09:88:ea:f1:8a:ce:
                    e3:96:1f:70:94:3b:4b:59:07:78:a1:8e:72:0b:dc:
                    03:4a:31:35:a3:e8:06:e3:c6:8b:94:bd:da:6f:2f:
                    ac:62:e1:54:01:57:1d:d4:3b:de:98:50:91:b9:de:
                    f2:6b:2d:ec:bc:bb:87:f2:60:c5:34:70:b0:d6:97:
                    50:10:02:d9:f4:d8:c6:02:65:24:31:6d:08:06:98:
                    51:ac:f9:66:9a:4f:3c:3f:d9:78:8f:6e:6e:1d:80:
                    fd:3a:9c:22:2e:57:23:62:3d:66:38:9a:79:ef:f3:
                    a4:fa:ac:10:6c:ba:32:6e:39:1b:cc:84:fb:46:48:
                    f0:b5:97:5d:ff:83:d3:ea:58:9e:f4:0b:bc:80:fb:
                    4d:50:58:f8:73:9a:9e:5a:2e:0f:e6:c3:22:fc:22:
                    d2:f0:78:54:54:34:92:79:e0:fd:6b:ea:c0:b3:9a:
                    7e:16:ea:2a:e0:ae:3b:30:2e:d1:1e:a6:53:78:92:
                    c1:28:37:9a:cd:b0:8f:cb:e9:96:07:de:8b:19:ec:
                    78:b6:de:22:01:70:bf:39:90:9f:21:0b:23:83:3c:
                    6e:12:19:2e:df:e4:1d:51:37:37:f1:9f:d7:2b:90:
                    a6:60:83:0d:d7:7c:24:aa:b9:e3:3d:88:f8:fe:09:
                    16:fb:ed:80:77:1b:e1:6a:db:2a:dc:b8:d4:ba:4c:
                    f0:0f:7a:d5:63:c0:c2:f5:98:2a:1e:96:be:65:d7:
                    d1:62:3a:7f:c1:a8:87:dc:37:6a:e7:dc:d8:cc:38:
                    e2:ce:60:73:d9:74:ec:98:d2:30:27:2f:e6:ad:60:
                    fc:2d:b9:60:85:ed:9c:ce:20:68:20:f8:60:ad:8f:
                    c3:0b:2d:27:19:69:79:c3:11:ef:de:1d:4b:f4:e9:
                    ef:f3:9e:62:70:5c:22:e9:f4:f0:1b:52:e7:2f:53:
                    f2:2f:6b:34:e2:60:36:9f:7d:b4:1e:93:e5:ae:95:
                    35:b9:7b:8c:33:4c:1e:85:8c:35:4c:b2:02:c0:bf:
                    db:4e:38:65:77:e5:de:93:68:d1:d9:41:f0:f5:b2:
                    17:c2:67:e3:42:a4:1f:2f:cb:9e:e7:e8:be:52:6a:
                    29:0d:75:85:9c:98:dd:ee:3b:c8:86:64:83:5d:b2:
                    95:6b:a8:02:02:bf:8d:d6:60:ee:28:c6:02:3d:b5:
                    0a:d6:bb:d1:e7:09:8b:81:62:83:66:93:99:39:4f:
                    a5:4f:24:86:f8:d0:00:28:ed:49:33:86:cc:91:69:
                    3c:2a:a6:2c:51:49:08:70:0a:48:08:f6:74:a3:d5:
                    c6:c2:25:96:ec:e8:ca:a6:1d:51:62:c6:7d:66:1b:
                    f7:de:d8:05:ac:3a:00:a0:3c:b8:e8:90:cb:7a:48:
                    74:84:57:44:b6:86:53:4b:e8:eb:40:e3:0c:59:4f:
                    2f:a7:26:51:ee:61:cd:3e:d0:23:2b:48:b7:f0:ec:
                    bf:8f:3e:46:c9
                Exponent: 65537 (0x10001)
        X509v3 extensions:
            X509v3 Basic Constraints: 
                CA:FALSE
            Netscape Comment: 
                OpenSSL Generated Certificate
            X509v3 Subject Key Identifier: 
                45:92:23:3A:5B:91:CD:25:17:BA:C9:4D:5D:C0:22:F5:B4:DB:2D:29
            X509v3 Authority Key Identifier: 
                keyid:4D:FC:7A:19:F3:2B:0C:7D:F6:C0:7C:4D:F8:72:34:4C:8C:35:52:74

    Signature Algorithm: sha256WithRSAEncryption
         20:2f:6d:25:37:fd:33:fd:bf:24:61:29:fa:53:56:5d:dd:6e:
         76:91:2b:95:a4:71:fc:ef:81:78:c1:60:b5:93:6c:40:5c:6d:
         c6:bb:2a:00:fe:08:e9:10:a9:9d:c6:c6:35:88:67:e3:57:62:
         a8:70:83:07:f8:36:38:00:81:51:3e:e1:3c:f1:3b:7d:04:96:
         8d:0c:ca:bf:cc:39:a3:ff:d4:b5:f8:58:71:82:8f:96:9d:58:
         0d:a9:36:ef:c2:c4:f1:17:86:d5:26:db:79:a0:17:e0:83:7c:
         19:36:9a:29:c0:f2:d5:e6:d5:21:a7:1b:dd:b0:38:e4:d7:43:
         ea:0c:93:3e:2d:02:37:85:99:3b:37:00:1e:44:d7:66:7d:ae:
         38:0e:9e:2a:5a:26:93:91:e2:a5:fd:b9:1c:9c:51:f7:54:cf:
         66:e2:2a:f3:84:9e:cc:b5:b2:55:ea:7d:72:89:af:4a:38:68:
         fb:4b:0e:bb:09:bf:25:e2:00:c7:78:e3:ce:72:fc:51:a1:1c:
         c0:89:77:1d:b7:41:cc:42:a2:9e:ff:37:43:42:70:e4:cd:ec:
         5b:a6:ae:85:d0:09:2a:d8:68:64:37:3f:cf:dd:89:af:49:2c:
         1d:d5:1a:01:5b:c8:1f:0e:da:f8:14:8c:be:b5:90:1b:82:35:
         8e:7e:22:1a:60:1a:dc:19:81:a8:a3:55:1f:c2:62:43:af:85:
         2d:96:5f:c1:9f:05:b1:91:bd:7c:bb:99:1e:5f:c3:0e:df:7b:
         77:5a:16:ee:1f:8f:90:7a:91:9f:91:cb:63:1f:6b:f1:f8:29:
         b2:0d:43:d3:af:2e:a1:af:19:08:fe:fc:06:b7:69:c3:1b:8c:
         2e:da:9f:fa:92:ca:c4:d1:34:0d:1a:31:9e:be:d2:b4:4a:97:
         75:40:62:bc:7e:57:36:80:a9:35:f9:db:ee:0b:e8:68:c4:dc:
         92:8b:98:a5:34:04:c6:0b:ae:b7:eb:81:57:ce:27:b3:80:86:
         40:2f:fc:e5:89:e2:3f:9e:a5:ec:94:f4:e3:13:0b:34:cb:83:
         a0:ca:42:53:b4:57:59:72:61:9f:f2:8b:47:8e:74:d1:c1:d7:
         18:bb:dd:dc:9a:29:17:04:74:c8:7f:dd:f8:c4:00:ce:8d:db:
         2d:8c:53:55:8d:08:37:92:86:e3:0a:69:53:bb:c4:02:59:2a:
         dd:a2:0c:d3:51:ba:5c:b2:2f:4a:ba:9d:ff:87:7d:f4:49:e3:
         4f:4f:bb:91:9e:8b:02:a7:06:c1:d5:d5:3f:3b:fe:3c:69:5e:
         32:87:76:78:66:1a:8a:43:2a:10:e4:48:b0:67:53:92:e0:76:
         e7:de:d7:f6:04:9a:23:05
-----BEGIN CERTIFICATE-----
MIIHpDCCBYygAwIBAgIBAzANBgkqhkiG9w0BAQsFADBWMQ8wDQYDVQQDDAZjYWNl
cnQxCzAJBgNVBAYTAkZJMREwDwYDVQQIDAhIZWxzaW5raTERMA8GA1UEBwwISGVs
c2lua2kxEDAOBgNVBAoMB01hcmlhREIwHhcNMjAwMzAzMDMwMzAzWhcNNDAwMjI3
MDMwMzAzWjBYMQswCQYDVQQGEwJGSTERMA8GA1UECAwISGVsc2lua2kxETAPBgNV
BAcMCEhlbHNpbmtpMRAwDgYDVQQKDAdNYXJpYURCMREwDwYDVQQDDAhzZXJ2ZXI4
azCCBCIwDQYJKoZIhvcNAQEBBQADggQPADCCBAoCggQBAKx0MZwKkkWK7wH+/T5+
xTML6A+vjpH/apnr34hPjl4HUmzDHFUswCPke7qNwd+4HFTOPg7YuTdmSIx9bZ2b
HLkQOU70PWSWk74+mN3Bece7VkVQu851zTkc+kK58KbtmsrvX0HbPYPewFFuDoIx
9/iXU7CzdBpiaR5xftzmvd5BL7OYoMTU2XyLwkBKY7vAXrwOuVM0EVdPDSPEhpI0
y1XLBlMZ1VGwRFIk6AOgE9g8irO5vAzB+VOYbYpOmmh0ormlIecnd+xLtpkU6NML
1ojPHu8uU8cG7qRNQuDbcEdZ775VKra75zS/EPtNcZASP246LoOIWo1GF5ZD8N31
kNYea7uyFwY4tbYcuB+4PZaCaqYoENgIBy76T94/bdbl5edP8O+D1b5Gwj8K8Rx5
0VvdiWmigkB9OT+VW5xy1+fva/sAR/ACkEe1q3p2FT69jB2727TPktjH/lDM0iV2
CvPdAZXcm1H3ijmC487vdl9N4b/+W5EbcZG3QnFKe6GW1lpc4Qk8F9s39I6H9VQY
ZTzzbZ+Re0CAOwTLI3CDqGUDlw44AVY3gJtHvo5EYSfsGVKhBfusFd/H3xFwpkGV
YtXJAi42AWGVJffUAsk5VENyX3pXX/+ut/hDCYjq8YrO45YfcJQ7S1kHeKGOcgvc
A0oxNaPoBuPGi5S92m8vrGLhVAFXHdQ73phQkbne8mst7Ly7h/JgxTRwsNaXUBAC
2fTYxgJlJDFtCAaYUaz5ZppPPD/ZeI9ubh2A/TqcIi5XI2I9Zjiaee/zpPqsEGy6
Mm45G8yE+0ZI8LWXXf+D0+pYnvQLvID7TVBY+HOanlouD+bDIvwi0vB4VFQ0knng
/WvqwLOafhbqKuCuOzAu0R6mU3iSwSg3ms2wj8vplgfeixnseLbeIgFwvzmQnyEL
I4M8bhIZLt/kHVE3N/Gf1yuQpmCDDdd8JKq54z2I+P4JFvvtgHcb4WrbKty41LpM
8A961WPAwvWYKh6WvmXX0WI6f8Goh9w3aufc2Mw44s5gc9l07JjSMCcv5q1g/C25
YIXtnM4gaCD4YK2PwwstJxlpecMR794dS/Tp7/OeYnBcIun08BtS5y9T8i9rNOJg
Np99tB6T5a6VNbl7jDNMHoWMNUyyAsC/2044ZXfl3pNo0dlB8PWyF8Jn40KkHy/L
nufovlJqKQ11hZyY3e47yIZkg12ylWuoAgK/jdZg7ijGAj21Cta70ecJi4Fig2aT
mTlPpU8khvjQACjtSTOGzJFpPCqmLFFJCHAKSAj2dKPVxsIlluzoyqYdUWLGfWYb
997YBaw6AKA8uOiQy3pIdIRXRLaGU0vo60DjDFlPL6cmUe5hzT7QIytIt/Dsv48+
RskCAwEAAaN7MHkwCQYDVR0TBAIwADAsBglghkgBhvhCAQ0EHxYdT3BlblNTTCBH
ZW5lcmF0ZWQgQ2VydGlmaWNhdGUwHQYDVR0OBBYEFEWSIzpbkc0lF7rJTV3AIvW0
2y0pMB8GA1UdIwQYMBaAFE38ehnzKwx99sB8TfhyNEyMNVJ0MA0GCSqGSIb3DQEB
CwUAA4ICAQAgL20lN/0z/b8kYSn6U1Zd3W52kSuVpHH874F4wWC1k2xAXG3GuyoA
/gjpEKmdxsY1iGfjV2KocIMH+DY4AIFRPuE88Tt9BJaNDMq/zDmj/9S1+Fhxgo+W
nVgNqTbvwsTxF4bVJtt5oBfgg3wZNpopwPLV5tUhpxvdsDjk10PqDJM+LQI3hZk7
NwAeRNdmfa44Dp4qWiaTkeKl/bkcnFH3VM9m4irzhJ7MtbJV6n1yia9KOGj7Sw67
Cb8l4gDHeOPOcvxRoRzAiXcdt0HMQqKe/zdDQnDkzexbpq6F0Akq2GhkNz/P3Ymv
SSwd1RoBW8gfDtr4FIy+tZAbgjWOfiIaYBrcGYGoo1UfwmJDr4Utll/BnwWxkb18
u5keX8MO33t3WhbuH4+QepGfkctjH2vx+CmyDUPTry6hrxkI/vwGt2nDG4wu2p/6
ksrE0TQNGjGevtK0Spd1QGK8flc2gKk1+dvuC+hoxNySi5ilNATGC66364FXziez
gIZAL/zlieI/nqXslPTjEws0y4OgykJTtFdZcmGf8otHjnTRwdcYu93cmikXBHTI
f934xADOjdstjFNVjQg3kobjCmlTu8QCWSrdogzTUbpcsi9Kup3/h330SeNPT7uR
nosCpwbB1dU/O/48aV4yh3Z4ZhqKQyoQ5EiwZ1OS4Hbn3tf2BJojBQ==
-----END CERTIFICATE-----
