Certificate:
    Data:
        Version: 3 (0x2)
        Serial Number: 3 (0x3)
    Signature Algorithm: sha256WithRSAEncryption
        Issuer: CN=cacert, C=FI, ST=Helsinki, L=Helsinki, O=MariaDB
        Validity
            Not Before: Jan 27 10:11:15 2019 GMT
            Not After : Jan 22 10:11:15 2039 GMT
        Subject: C=FI, ST=Helsinki, L=Helsinki, O=MariaDB, CN=server8k
        Subject Public Key Info:
            Public Key Algorithm: rsaEncryption
                Public-Key: (8192 bit)
                Modulus:
                    00:b9:f5:78:46:53:e0:3c:07:bf:97:fb:ab:be:97:
                    71:d5:89:44:bf:db:0e:58:be:96:42:06:9e:dc:08:
                    f7:51:d6:27:7f:65:2d:c7:1e:f7:4c:5b:3f:e5:7a:
                    f8:fd:df:73:42:92:0f:37:5e:28:ae:51:14:13:be:
                    b3:55:d4:db:9a:f6:a9:88:84:02:79:fb:f9:c4:67:
                    f9:96:99:68:80:58:4a:22:c4:a1:90:c0:33:58:c8:
                    96:d1:a4:7f:7f:9e:84:a6:f3:03:a3:01:93:cb:1d:
                    ab:f1:f5:17:28:03:34:78:6d:47:46:07:ab:f8:ea:
                    ff:02:8a:f8:20:92:a2:ce:29:6a:66:d0:39:87:2f:
                    62:9f:43:d9:a3:0b:74:89:ab:f7:d9:39:7d:6c:de:
                    05:4e:58:4d:35:15:d4:18:2d:ea:70:df:60:fc:50:
                    f8:0d:b5:8e:c0:c6:03:74:3b:8d:53:d6:87:a2:9a:
                    b6:0a:5a:80:a5:cc:df:30:a7:95:30:ad:50:62:e1:
                    01:3a:8e:ee:e1:41:b4:99:ee:ce:8b:ca:55:24:3e:
                    7c:00:79:08:f4:46:42:e0:63:93:a3:d0:5a:39:fc:
                    7e:f4:96:21:24:9a:f7:29:0d:22:85:b6:c5:c9:9c:
                    92:71:68:5b:03:de:fb:bc:75:f8:0f:24:ea:01:92:
                    b7:37:e0:78:a0:64:37:69:90:8a:7c:99:c7:45:f9:
                    90:a2:50:59:e1:1c:02:ad:b2:2e:c7:3b:26:ec:76:
                    6d:10:c9:f9:2f:dc:12:87:41:72:08:ec:0a:1c:ae:
                    9b:6f:de:57:a4:aa:b9:ee:83:a4:14:c4:e5:54:66:
                    32:5d:21:2a:a3:6d:2d:8d:f5:8e:08:a2:a3:0d:07:
                    83:4b:0a:27:0b:9c:7f:73:78:f8:d9:9c:1e:d4:33:
                    2b:a7:35:b4:77:5e:12:d6:a6:a4:d2:d0:af:30:b6:
                    d5:1f:05:9b:1e:e6:ae:c8:a5:8c:b6:b7:dc:c3:0b:
                    1a:85:5a:d5:bd:be:65:c8:e6:a5:f0:37:38:16:d2:
                    b0:ca:ff:2e:a1:f2:7f:8e:28:c5:9c:d4:de:be:1f:
                    23:43:51:85:f9:e5:fb:a8:61:61:96:50:34:ad:75:
                    34:fa:46:e9:2a:66:1a:43:9c:e4:e5:79:26:b7:0b:
                    5d:d1:1d:81:c6:52:17:d7:95:13:9e:65:64:9b:2d:
                    0d:2b:7a:04:28:aa:02:df:81:0c:f3:83:3d:76:ad:
                    40:e6:f8:c0:b2:f3:0a:b2:cc:e8:f2:c8:ac:21:c4:
                    90:7d:4c:b6:50:d8:b7:0a:15:12:5f:a5:e0:c5:68:
                    8f:ed:4d:f4:d9:b5:72:df:63:c9:d6:14:fe:d8:fc:
                    db:31:72:1e:15:d5:e8:ac:d9:a7:d2:0a:bc:a7:a6:
                    51:5f:0d:0f:23:20:2d:34:ba:44:66:f6:81:e3:aa:
                    fe:38:11:61:ec:03:3f:64:6f:93:f5:2d:b0:be:7d:
                    6f:49:73:c6:23:67:7b:46:da:62:67:10:e4:e6:a1:
                    e4:1b:50:0f:ff:50:51:0a:dc:ee:1b:e3:ed:20:30:
                    3a:c1:37:17:24:96:fa:fe:2e:d0:75:b3:9b:c1:ae:
                    15:ac:ba:fe:b4:d5:33:ff:33:86:f3:5e:24:f7:45:
                    8d:ad:b0:47:6a:ef:9c:0e:f7:07:0e:71:a0:e7:75:
                    4a:42:59:02:b7:11:86:d6:65:77:06:3a:f5:6f:99:
                    3b:9b:52:cf:e6:30:59:e3:28:19:8e:c2:5f:e1:f7:
                    28:74:ff:c2:d1:35:91:96:ed:52:14:4a:3c:91:19:
                    50:7b:3e:04:65:f8:3e:d9:6c:29:cf:74:d8:0f:df:
                    e4:cd:94:73:81:ef:19:9e:4b:0c:3e:2e:24:fd:a9:
                    c6:73:b5:7c:ed:d1:0e:72:ac:c9:fe:5e:a6:2d:d7:
                    7f:ca:c5:75:18:cb:3e:27:62:20:cf:10:c1:7f:d3:
                    6f:a9:d4:78:98:3b:f6:0c:e0:5f:54:b3:0b:0a:36:
                    d7:59:34:c3:70:5c:59:25:cf:54:e0:7f:ec:a3:3b:
                    c4:a1:6f:be:1e:be:e1:36:c6:d3:26:bd:86:ae:0e:
                    73:26:89:3c:7f:72:a1:2d:00:66:b1:e2:e0:74:72:
                    86:12:c2:6b:e4:e7:99:70:bb:98:81:c3:44:65:c5:
                    76:21:62:f1:af:31:aa:73:be:fb:b0:86:a6:5b:e2:
                    51:78:e6:6a:1b:58:3f:4a:34:e6:99:88:e4:1c:b1:
                    80:94:f2:31:a0:b0:27:81:b1:18:98:6f:53:2e:74:
                    a0:c3:2d:e7:f6:92:27:80:40:a4:f3:3a:e2:ad:84:
                    64:82:ed:80:3f:e0:54:e8:3d:ec:75:25:21:2a:2f:
                    4f:08:61:be:b6:e0:fb:bd:ec:7e:3b:17:d2:a4:bb:
                    b8:f8:3f:9a:2e:12:eb:b2:00:45:51:3a:99:53:6e:
                    b5:06:5e:8b:8f:0a:b5:61:2c:12:10:60:4d:2c:de:
                    6e:e8:80:f8:99:b2:8b:36:61:33:88:08:60:4f:30:
                    ff:61:d2:cc:02:75:5d:d7:8d:06:e0:bd:e3:e0:35:
                    f7:ba:f8:a6:e4:14:79:e4:62:4d:bf:ea:81:fe:1e:
                    01:24:69:da:89:1a:c1:11:3c:50:f1:a3:b3:27:df:
                    cc:16:3a:03:97:88:a4:92:63:a6:8e:c9:18:f5:02:
                    16:a7:b2:a5:3d:f7:12:00:e4:e1:55:96:16:84:6e:
                    03:70:3d:ce:4b
                Exponent: 65537 (0x10001)
        X509v3 extensions:
            X509v3 Basic Constraints: 
                CA:FALSE
            Netscape Comment: 
                OpenSSL Generated Certificate
            X509v3 Subject Key Identifier: 
                74:34:B9:9A:5C:1A:27:83:BA:0D:05:F9:5B:5B:A6:F6:BB:1A:8C:E8
            X509v3 Authority Key Identifier: 
                keyid:CA:71:99:89:F0:72:AB:75:66:BB:65:6A:03:04:72:A5:7B:95:A6:93

    Signature Algorithm: sha256WithRSAEncryption
         e6:e4:75:22:6c:5c:ea:f3:3c:85:1e:3c:62:a4:9b:bc:52:49:
         2a:dd:dd:7e:94:c9:1b:c9:7e:4f:f2:82:ce:68:a2:17:29:b7:
         73:0b:39:33:ca:86:c4:51:ad:d9:18:e7:c2:42:b8:c3:a9:4c:
         8f:54:24:79:f2:27:9e:5b:aa:e5:bc:36:eb:11:b5:91:4b:7b:
         79:b9:41:b0:d9:72:53:fb:ad:67:7e:7a:7e:0d:06:9e:45:7e:
         f6:5f:5b:c4:77:1d:d1:e5:d7:7f:8e:f6:64:2a:7e:14:87:f4:
         b4:a4:13:50:47:f7:49:b2:ad:36:c0:27:15:eb:c0:91:f0:e0:
         77:bc:93:f3:db:01:69:10:c0:9c:e1:5b:03:9b:1d:ac:3d:0c:
         cc:65:24:93:d6:8d:dc:aa:d7:d5:74:7d:0b:2a:6c:ec:c1:ad:
         2d:83:56:aa:28:94:9e:e2:54:98:1c:28:bd:45:63:e5:6a:00:
         20:ab:41:83:31:05:8d:38:ea:bb:35:ad:3b:28:46:44:47:3d:
         f6:88:2e:ac:46:73:8e:13:0d:8d:5c:44:2b:0a:e3:bb:27:e3:
         ce:5b:f6:3c:fc:e4:86:95:0b:46:87:f7:89:ab:36:7b:3e:78:
         1d:be:04:aa:fa:f0:2c:fd:a7:15:ea:1e:35:bf:3c:33:3c:b7:
         b8:4f:1b:db
-----BEGIN CERTIFICATE-----
MIIGpDCCBYygAwIBAgIBAzANBgkqhkiG9w0BAQsFADBWMQ8wDQYDVQQDDAZjYWNl
cnQxCzAJBgNVBAYTAkZJMREwDwYDVQQIDAhIZWxzaW5raTERMA8GA1UEBwwISGVs
c2lua2kxEDAOBgNVBAoMB01hcmlhREIwHhcNMTkwMTI3MTAxMTE1WhcNMzkwMTIy
MTAxMTE1WjBYMQswCQYDVQQGEwJGSTERMA8GA1UECAwISGVsc2lua2kxETAPBgNV
BAcMCEhlbHNpbmtpMRAwDgYDVQQKDAdNYXJpYURCMREwDwYDVQQDDAhzZXJ2ZXI4
azCCBCIwDQYJKoZIhvcNAQEBBQADggQPADCCBAoCggQBALn1eEZT4DwHv5f7q76X
cdWJRL/bDli+lkIGntwI91HWJ39lLcce90xbP+V6+P3fc0KSDzdeKK5RFBO+s1XU
25r2qYiEAnn7+cRn+ZaZaIBYSiLEoZDAM1jIltGkf3+ehKbzA6MBk8sdq/H1FygD
NHhtR0YHq/jq/wKK+CCSos4pambQOYcvYp9D2aMLdImr99k5fWzeBU5YTTUV1Bgt
6nDfYPxQ+A21jsDGA3Q7jVPWh6KatgpagKXM3zCnlTCtUGLhATqO7uFBtJnuzovK
VSQ+fAB5CPRGQuBjk6PQWjn8fvSWISSa9ykNIoW2xcmcknFoWwPe+7x1+A8k6gGS
tzfgeKBkN2mQinyZx0X5kKJQWeEcAq2yLsc7Jux2bRDJ+S/cEodBcgjsChyum2/e
V6Sque6DpBTE5VRmMl0hKqNtLY31jgiiow0Hg0sKJwucf3N4+NmcHtQzK6c1tHde
EtampNLQrzC21R8Fmx7mrsiljLa33MMLGoVa1b2+ZcjmpfA3OBbSsMr/LqHyf44o
xZzU3r4fI0NRhfnl+6hhYZZQNK11NPpG6SpmGkOc5OV5JrcLXdEdgcZSF9eVE55l
ZJstDSt6BCiqAt+BDPODPXatQOb4wLLzCrLM6PLIrCHEkH1MtlDYtwoVEl+l4MVo
j+1N9Nm1ct9jydYU/tj82zFyHhXV6KzZp9IKvKemUV8NDyMgLTS6RGb2geOq/jgR
YewDP2Rvk/UtsL59b0lzxiNne0baYmcQ5Oah5BtQD/9QUQrc7hvj7SAwOsE3FySW
+v4u0HWzm8GuFay6/rTVM/8zhvNeJPdFja2wR2rvnA73Bw5xoOd1SkJZArcRhtZl
dwY69W+ZO5tSz+YwWeMoGY7CX+H3KHT/wtE1kZbtUhRKPJEZUHs+BGX4PtlsKc90
2A/f5M2Uc4HvGZ5LDD4uJP2pxnO1fO3RDnKsyf5epi3Xf8rFdRjLPidiIM8QwX/T
b6nUeJg79gzgX1SzCwo211k0w3BcWSXPVOB/7KM7xKFvvh6+4TbG0ya9hq4OcyaJ
PH9yoS0AZrHi4HRyhhLCa+TnmXC7mIHDRGXFdiFi8a8xqnO++7CGplviUXjmahtY
P0o05pmI5ByxgJTyMaCwJ4GxGJhvUy50oMMt5/aSJ4BApPM64q2EZILtgD/gVOg9
7HUlISovTwhhvrbg+73sfjsX0qS7uPg/mi4S67IARVE6mVNutQZei48KtWEsEhBg
TSzebuiA+JmyizZhM4gIYE8w/2HSzAJ1XdeNBuC94+A197r4puQUeeRiTb/qgf4e
ASRp2okawRE8UPGjsyffzBY6A5eIpJJjpo7JGPUCFqeypT33EgDk4VWWFoRuA3A9
zksCAwEAAaN7MHkwCQYDVR0TBAIwADAsBglghkgBhvhCAQ0EHxYdT3BlblNTTCBH
ZW5lcmF0ZWQgQ2VydGlmaWNhdGUwHQYDVR0OBBYEFHQ0uZpcGieDug0F+Vtbpva7
GozoMB8GA1UdIwQYMBaAFMpxmYnwcqt1ZrtlagMEcqV7laaTMA0GCSqGSIb3DQEB
CwUAA4IBAQDm5HUibFzq8zyFHjxipJu8Ukkq3d1+lMkbyX5P8oLOaKIXKbdzCzkz
yobEUa3ZGOfCQrjDqUyPVCR58ieeW6rlvDbrEbWRS3t5uUGw2XJT+61nfnp+DQae
RX72X1vEdx3R5dd/jvZkKn4Uh/S0pBNQR/dJsq02wCcV68CR8OB3vJPz2wFpEMCc
4VsDmx2sPQzMZSST1o3cqtfVdH0LKmzswa0tg1aqKJSe4lSYHCi9RWPlagAgq0GD
MQWNOOq7Na07KEZERz32iC6sRnOOEw2NXEQrCuO7J+POW/Y8/OSGlQtGh/eJqzZ7
PngdvgSq+vAs/acV6h41vzwzPLe4Txvb
-----END CERTIFICATE-----
