Certificate:
    Data:
        Version: 3 (0x2)
        Serial Number: 1 (0x1)
        Signature Algorithm: sha256WithRSAEncryption
        Issuer: CN=cacert, C=FI, ST=Helsinki, L=Helsinki, O=MariaDB
        Validity
            Not Before: May  2 14:29:07 2019 GMT
            Not After : Apr 27 14:29:07 2039 GMT
        Subject: C=FI, ST=Helsinki, L=Helsinki, O=MariaDB, CN=server
        Subject Public Key Info:
            Public Key Algorithm: rsaEncryption
                RSA Public-Key: (2048 bit)
                Modulus:
                    00:b1:17:08:8f:43:a3:00:01:98:3b:52:8f:0b:b0:
                    13:4c:eb:df:37:0d:a3:2c:5b:38:8d:28:88:94:33:
                    f3:04:0a:b2:1c:98:27:ec:76:9f:a2:f7:35:79:48:
                    cc:55:1e:68:b4:a7:4d:40:0e:bd:d5:86:c0:e5:cc:
                    cc:fa:41:5a:55:3f:79:59:28:6b:a2:ca:55:77:c9:
                    3f:5e:c4:96:e1:8c:64:cc:c7:95:29:48:81:bf:a8:
                    c0:d2:3a:6f:6d:a7:14:b5:ec:d8:b6:c1:d8:86:7f:
                    7a:e9:83:c0:83:c3:e1:5a:30:dd:29:ec:85:68:d9:
                    09:9a:75:eb:ab:5f:3d:b1:a3:4f:e2:de:54:35:56:
                    9c:7d:8f:2a:4a:18:8d:34:05:05:b4:3b:5b:9e:df:
                    40:20:ad:87:a3:6b:c1:f2:da:a3:65:ef:c4:cb:3c:
                    24:68:43:23:e8:14:a7:c0:11:b7:5f:e9:e3:09:24:
                    af:dd:ac:97:75:22:9e:15:b7:20:b0:82:b0:e1:0f:
                    0f:41:fc:da:3b:76:0c:6b:f8:42:06:e2:9e:70:9a:
                    ed:a1:73:23:58:5c:f1:98:18:42:42:d4:0f:2e:35:
                    41:00:50:1d:15:e7:65:30:b5:db:72:7d:88:da:be:
                    93:72:e3:65:14:fa:0d:23:98:d6:5c:a5:fc:bb:8a:
                    8f:f9
                Exponent: 65537 (0x10001)
        X509v3 extensions:
            X509v3 Subject Alternative Name: 
                IP Address:127.0.0.1, DNS:localhost
    Signature Algorithm: sha256WithRSAEncryption
         7e:97:8a:e9:81:e7:c9:44:0d:a6:45:7c:f6:ae:12:f9:c3:3c:
         2c:1f:de:aa:6b:1b:1a:09:ce:9d:d2:d7:5c:ab:32:98:91:1e:
         f8:7d:63:7a:c0:d3:34:eb:3a:55:b2:cd:f5:99:5f:95:bb:3e:
         52:1d:05:2d:06:26:08:d1:e8:59:09:61:64:67:70:6d:5b:94:
         2b:b4:0c:59:88:bf:56:c8:fe:73:7f:47:e9:b0:e5:46:71:26:
         73:5f:d2:a0:81:4a:67:43:7a:18:2a:81:5b:2a:90:a9:3e:7b:
         73:6e:83:b5:55:06:75:d1:8c:d1:d8:ad:7c:6a:ce:48:00:dd:
         c2:1d:b9:40:cd:91:2f:43:c4:d6:f4:79:5e:5c:83:23:87:a7:
         38:3c:d8:49:81:d2:eb:49:c7:f0:5f:3d:6e:a0:38:75:ca:92:
         ce:d5:a7:54:fc:0e:7e:f4:14:66:77:79:93:bb:92:56:ab:f3:
         1b:3c:75:57:4f:2d:12:6d:99:5b:d0:b5:62:b7:1d:e3:5b:a9:
         70:cd:58:41:77:a6:2c:6d:34:bd:11:13:7d:ca:51:3e:06:f5:
         cb:d4:d5:11:64:b0:cc:30:2f:a5:62:d0:dd:2c:8c:66:3f:df:
         2a:df:4d:56:99:5c:12:af:ee:92:e1:02:f6:ce:12:be:99:fa:
         cc:0c:5c:af
-----BEGIN CERTIFICATE-----
MIIDRTCCAi2gAwIBAgIBATANBgkqhkiG9w0BAQsFADBWMQ8wDQYDVQQDDAZjYWNl
cnQxCzAJBgNVBAYTAkZJMREwDwYDVQQIDAhIZWxzaW5raTERMA8GA1UEBwwISGVs
c2lua2kxEDAOBgNVBAoMB01hcmlhREIwHhcNMTkwNTAyMTQyOTA3WhcNMzkwNDI3
MTQyOTA3WjBWMQswCQYDVQQGEwJGSTERMA8GA1UECAwISGVsc2lua2kxETAPBgNV
BAcMCEhlbHNpbmtpMRAwDgYDVQQKDAdNYXJpYURCMQ8wDQYDVQQDDAZzZXJ2ZXIw
ggEiMA0GCSqGSIb3DQEBAQUAA4IBDwAwggEKAoIBAQCxFwiPQ6MAAZg7Uo8LsBNM
6983DaMsWziNKIiUM/MECrIcmCfsdp+i9zV5SMxVHmi0p01ADr3VhsDlzMz6QVpV
P3lZKGuiylV3yT9exJbhjGTMx5UpSIG/qMDSOm9tpxS17Ni2wdiGf3rpg8CDw+Fa
MN0p7IVo2QmadeurXz2xo0/i3lQ1Vpx9jypKGI00BQW0O1ue30AgrYeja8Hy2qNl
78TLPCRoQyPoFKfAEbdf6eMJJK/drJd1Ip4VtyCwgrDhDw9B/No7dgxr+EIG4p5w
mu2hcyNYXPGYGEJC1A8uNUEAUB0V52UwtdtyfYjavpNy42UU+g0jmNZcpfy7io/5
AgMBAAGjHjAcMBoGA1UdEQQTMBGHBH8AAAGCCWxvY2FsaG9zdDANBgkqhkiG9w0B
AQsFAAOCAQEAfpeK6YHnyUQNpkV89q4S+cM8LB/eqmsbGgnOndLXXKsymJEe+H1j
esDTNOs6VbLN9Zlflbs+Uh0FLQYmCNHoWQlhZGdwbVuUK7QMWYi/Vsj+c39H6bDl
RnEmc1/SoIFKZ0N6GCqBWyqQqT57c26DtVUGddGM0ditfGrOSADdwh25QM2RL0PE
1vR5XlyDI4enODzYSYHS60nH8F89bqA4dcqSztWnVPwOfvQUZnd5k7uSVqvzGzx1
V08tEm2ZW9C1Yrcd41upcM1YQXemLG00vRETfcpRPgb1y9TVEWSwzDAvpWLQ3SyM
Zj/fKt9NVplcEq/ukuEC9s4Svpn6zAxcrw==
-----END CERTIFICATE-----
