Certificate:
    Data:
        Version: 3 (0x2)
        Serial Number: 2 (0x2)
    Signature Algorithm: sha256WithRSAEncryption
        Issuer: CN=cacert, C=FI, ST=Helsinki, L=Helsinki, O=MariaDB
        Validity
            Not Before: Apr 24 14:29:50 2019 GMT
            Not After : Apr 19 14:29:50 2039 GMT
        Subject: C=FI, ST=Helsinki, L=Helsinki, O=MariaDB, CN=server8k
        Subject Public Key Info:
            Public Key Algorithm: rsaEncryption
                Public-Key: (8192 bit)
                Modulus:
                    00:cd:66:a2:70:48:a6:7b:2e:ef:40:10:f0:09:9f:
                    0e:e8:f3:3b:43:07:2d:39:b7:54:55:aa:d9:16:12:
                    81:18:8c:12:9a:ce:f1:5c:9a:f5:5d:96:09:3a:13:
                    ee:b4:e5:a9:88:10:99:d9:7a:d7:c6:d6:6a:7e:26:
                    c5:1f:63:83:bc:09:1a:1c:eb:f1:0b:9e:dd:cd:34:
                    86:06:4c:83:aa:c9:45:5a:bd:2d:a2:ae:95:c7:4f:
                    97:99:f4:80:bf:7e:38:67:9d:cf:94:12:e4:e9:6b:
                    00:62:3d:b0:c3:c4:c3:94:62:e8:c5:7e:54:4e:8e:
                    a0:d9:ad:8f:18:66:43:93:aa:66:c7:f3:cb:4b:47:
                    2c:a0:94:99:18:40:ed:82:53:15:aa:cb:66:56:27:
                    ed:78:8c:ed:f3:05:88:6b:dc:2e:d1:19:f7:ae:4a:
                    d4:8d:55:81:99:ec:46:c2:2c:db:9a:20:a1:3d:fa:
                    54:a8:a5:fb:66:dd:a4:09:ee:d2:5a:d2:f9:5d:07:
                    4b:2f:7b:2f:e8:ad:97:db:52:59:41:28:a5:90:a8:
                    d2:63:e9:ba:e6:a2:98:d7:7a:04:b2:63:1d:3c:09:
                    e9:4c:af:b9:1c:c0:3c:4c:4a:55:87:9e:a7:16:8a:
                    0c:6b:56:86:0f:d4:32:6e:41:05:89:12:55:45:33:
                    57:de:49:38:4e:36:3f:dc:db:95:b0:13:da:4b:96:
                    a1:d3:15:eb:80:99:5f:e9:d4:9f:2f:ba:82:ff:1e:
                    9e:00:a8:5b:63:a7:12:49:ff:25:d5:b0:76:32:e2:
                    04:01:21:5d:c8:2a:13:0f:f2:82:8f:f0:cd:ca:4f:
                    01:5a:a1:9f:87:21:b3:33:ac:0d:0e:83:d8:3f:f7:
                    db:9f:9d:f6:ba:c1:54:38:fe:c9:ac:59:47:93:51:
                    bd:a8:3d:35:3f:e5:85:4e:f1:8b:06:72:94:3a:ae:
                    ad:bf:32:cc:19:e3:c6:d7:3a:76:1e:5a:2d:10:cb:
                    67:f0:bc:86:fc:0c:89:5c:7d:c4:2b:61:79:8c:82:
                    ea:a9:84:55:a2:fd:1f:ab:11:a0:fa:b3:24:eb:b1:
                    2d:f6:30:54:19:f5:71:a1:34:c6:37:20:29:32:56:
                    97:29:40:63:5c:a7:fc:8e:67:98:8f:92:ec:49:06:
                    06:fb:68:9d:d6:1c:9e:20:da:9d:74:21:8c:e7:0b:
                    81:7a:ac:2e:fd:a0:8c:77:e9:6a:b2:20:7d:78:b8:
                    ce:7a:bb:4c:8c:74:14:07:1f:5d:e8:91:6f:26:c4:
                    56:ce:fc:9f:03:59:85:b9:5e:93:b9:1b:35:ab:ca:
                    3d:c2:06:b6:ad:69:e3:5e:38:86:66:cc:e6:9e:64:
                    f5:11:77:bc:7d:7f:9c:0e:fe:01:a5:dd:86:b2:84:
                    ae:f6:6c:ce:3d:21:1a:9a:8b:a4:fe:91:ab:ea:18:
                    4e:e0:fa:f8:8a:53:a5:b0:45:30:b0:c2:60:ce:e0:
                    3e:f5:6f:17:15:df:a6:15:04:4d:34:92:e0:88:6d:
                    ee:a2:f4:c3:7c:fd:a4:79:35:d3:44:c5:a4:98:14:
                    a5:a4:2e:5f:64:e0:b7:4f:da:b1:22:6a:2e:6b:40:
                    96:8d:4f:92:ad:55:36:a0:fe:bc:79:26:25:5c:65:
                    27:36:5b:40:ef:b0:e8:ab:62:1f:9f:7e:a7:47:ee:
                    32:37:fc:00:7e:9c:03:76:82:fd:7b:76:98:58:d1:
                    a8:ed:b1:a1:99:09:92:0c:97:d8:92:7e:75:bf:3b:
                    d5:c3:04:0f:b5:3e:86:64:bf:5a:51:9a:58:09:ae:
                    77:bf:e9:66:2b:89:f6:aa:72:af:d6:ce:31:b3:20:
                    6b:96:32:35:d0:0e:bf:a9:94:c6:b1:c4:3e:fa:24:
                    ed:19:17:47:75:23:df:7d:02:a0:e9:93:99:37:1c:
                    bc:9f:d9:b9:61:99:dd:c6:bf:74:2f:a3:48:61:89:
                    8c:36:ab:bb:7a:3c:5e:95:a1:83:55:f9:6c:72:d9:
                    69:7a:4b:c2:66:95:de:28:45:c8:26:f1:1e:59:3a:
                    0d:af:da:f0:eb:fd:c4:e1:e8:68:c7:62:8d:16:f3:
                    73:41:7b:65:97:b6:b2:de:ae:07:f5:e2:98:f6:75:
                    01:b3:98:28:fa:08:11:22:df:cb:c4:2c:c3:3c:09:
                    93:6f:4a:d9:6e:cd:42:23:a7:96:04:d8:40:73:fd:
                    9d:09:33:6b:38:45:9e:fb:c3:f8:9b:54:1b:f9:f8:
                    76:63:0a:47:d9:54:20:97:c2:3a:65:5f:a6:f5:36:
                    1e:3a:f6:ff:6a:5b:e1:44:b0:17:9b:3f:49:5a:3b:
                    c7:87:26:37:fa:0e:66:50:b8:c0:39:8b:b2:88:3e:
                    8b:3e:c6:11:8a:c9:09:96:66:f6:b0:d8:d0:71:35:
                    19:c3:61:7c:7e:2b:a5:d0:2d:0d:0e:ea:04:dc:94:
                    f0:f0:6f:0b:ff:00:99:f7:fc:46:27:38:40:b7:26:
                    75:ff:ba:fd:d0:f5:83:52:bb:9a:64:77:7f:5f:1e:
                    15:8e:86:89:14:c6:ab:dc:a8:1b:f9:1e:dc:55:11:
                    cc:28:6a:1c:ef:92:42:3b:38:c2:55:19:da:db:46:
                    70:d7:17:6a:66:7e:ba:44:3d:38:4f:9c:9d:fa:87:
                    20:a1:cb:86:87:62:ce:c5:3d:ac:d7:78:b1:93:38:
                    ee:a4:be:04:61:ca:ae:01:91:8f:c8:14:3c:79:61:
                    d6:81:f3:e6:47
                Exponent: 65537 (0x10001)
        X509v3 extensions:
            X509v3 Basic Constraints: 
                CA:FALSE
            Netscape Comment: 
                OpenSSL Generated Certificate
            X509v3 Subject Key Identifier: 
                B9:0C:F0:60:22:D4:C5:BA:28:88:C5:5F:31:E0:A6:29:CC:E0:15:E6
            X509v3 Authority Key Identifier: 
                keyid:F3:1D:A0:5F:69:33:8A:A4:B4:76:97:A2:6E:AB:FD:A0:BF:F3:2C:CE

    Signature Algorithm: sha256WithRSAEncryption
         3d:c1:30:c0:a6:91:10:7b:3a:d6:d9:2e:e2:9c:23:03:48:88:
         72:3a:9e:02:4d:cd:fe:b6:f7:14:77:1f:0f:98:94:3f:ed:90:
         7e:64:0d:2d:d4:4d:78:dd:8f:10:8b:15:d0:65:5e:18:68:ea:
         7c:be:f5:3a:84:e5:23:aa:e1:d0:15:61:20:3c:5c:06:0a:33:
         e2:39:a6:11:15:cf:66:74:10:80:9d:86:de:8c:3d:9b:78:0a:
         cb:87:dd:fb:87:e6:1b:74:f9:81:57:ae:92:c8:d0:62:78:63:
         11:6d:34:2d:3f:f3:8b:82:e0:66:8f:0f:94:11:2e:62:06:6b:
         1d:5e:7f:49:90:c6:9b:c3:22:ab:f3:62:3d:90:61:aa:3c:96:
         28:55:b2:96:ec:ed:2a:f2:88:94:78:b9:12:ad:42:71:0e:ad:
         d1:82:db:82:37:0b:e3:ed:f5:59:50:87:84:e6:1d:67:25:b5:
         79:c3:90:00:6d:59:5f:ee:72:92:e8:9e:4a:e5:07:2a:0a:19:
         8e:13:bd:2f:1f:9b:a4:c1:ca:e2:5d:1f:31:db:80:d2:52:55:
         67:b8:a6:53:19:18:63:23:5b:49:3d:d6:06:7f:57:e3:43:de:
         17:18:32:85:97:20:d5:dd:8a:7e:7c:3b:d0:cc:85:96:d5:96:
         3c:29:76:85
-----BEGIN CERTIFICATE-----
MIIGpDCCBYygAwIBAgIBAjANBgkqhkiG9w0BAQsFADBWMQ8wDQYDVQQDDAZjYWNl
cnQxCzAJBgNVBAYTAkZJMREwDwYDVQQIDAhIZWxzaW5raTERMA8GA1UEBwwISGVs
c2lua2kxEDAOBgNVBAoMB01hcmlhREIwHhcNMTkwNDI0MTQyOTUwWhcNMzkwNDE5
MTQyOTUwWjBYMQswCQYDVQQGEwJGSTERMA8GA1UECAwISGVsc2lua2kxETAPBgNV
BAcMCEhlbHNpbmtpMRAwDgYDVQQKDAdNYXJpYURCMREwDwYDVQQDDAhzZXJ2ZXI4
azCCBCIwDQYJKoZIhvcNAQEBBQADggQPADCCBAoCggQBAM1monBIpnsu70AQ8Amf
DujzO0MHLTm3VFWq2RYSgRiMEprO8Vya9V2WCToT7rTlqYgQmdl618bWan4mxR9j
g7wJGhzr8Que3c00hgZMg6rJRVq9LaKulcdPl5n0gL9+OGedz5QS5OlrAGI9sMPE
w5Ri6MV+VE6OoNmtjxhmQ5OqZsfzy0tHLKCUmRhA7YJTFarLZlYn7XiM7fMFiGvc
LtEZ965K1I1VgZnsRsIs25ogoT36VKil+2bdpAnu0lrS+V0HSy97L+itl9tSWUEo
pZCo0mPpuuaimNd6BLJjHTwJ6UyvuRzAPExKVYeepxaKDGtWhg/UMm5BBYkSVUUz
V95JOE42P9zblbAT2kuWodMV64CZX+nUny+6gv8engCoW2OnEkn/JdWwdjLiBAEh
XcgqEw/ygo/wzcpPAVqhn4chszOsDQ6D2D/325+d9rrBVDj+yaxZR5NRvag9NT/l
hU7xiwZylDqurb8yzBnjxtc6dh5aLRDLZ/C8hvwMiVx9xCtheYyC6qmEVaL9H6sR
oPqzJOuxLfYwVBn1caE0xjcgKTJWlylAY1yn/I5nmI+S7EkGBvtondYcniDanXQh
jOcLgXqsLv2gjHfparIgfXi4znq7TIx0FAcfXeiRbybEVs78nwNZhblek7kbNavK
PcIGtq1p4144hmbM5p5k9RF3vH1/nA7+AaXdhrKErvZszj0hGpqLpP6Rq+oYTuD6
+IpTpbBFMLDCYM7gPvVvFxXfphUETTSS4Iht7qL0w3z9pHk100TFpJgUpaQuX2Tg
t0/asSJqLmtAlo1Pkq1VNqD+vHkmJVxlJzZbQO+w6KtiH59+p0fuMjf8AH6cA3aC
/Xt2mFjRqO2xoZkJkgyX2JJ+db871cMED7U+hmS/WlGaWAmud7/pZiuJ9qpyr9bO
MbMga5YyNdAOv6mUxrHEPvok7RkXR3Uj330CoOmTmTccvJ/ZuWGZ3ca/dC+jSGGJ
jDaru3o8XpWhg1X5bHLZaXpLwmaV3ihFyCbxHlk6Da/a8Ov9xOHoaMdijRbzc0F7
ZZe2st6uB/XimPZ1AbOYKPoIESLfy8QswzwJk29K2W7NQiOnlgTYQHP9nQkzazhF
nvvD+JtUG/n4dmMKR9lUIJfCOmVfpvU2Hjr2/2pb4USwF5s/SVo7x4cmN/oOZlC4
wDmLsog+iz7GEYrJCZZm9rDY0HE1GcNhfH4rpdAtDQ7qBNyU8PBvC/8Amff8Ric4
QLcmdf+6/dD1g1K7mmR3f18eFY6GiRTGq9yoG/ke3FURzChqHO+SQjs4wlUZ2ttG
cNcXamZ+ukQ9OE+cnfqHIKHLhodizsU9rNd4sZM47qS+BGHKrgGRj8gUPHlh1oHz
5kcCAwEAAaN7MHkwCQYDVR0TBAIwADAsBglghkgBhvhCAQ0EHxYdT3BlblNTTCBH
ZW5lcmF0ZWQgQ2VydGlmaWNhdGUwHQYDVR0OBBYEFLkM8GAi1MW6KIjFXzHgpinM
4BXmMB8GA1UdIwQYMBaAFPMdoF9pM4qktHaXom6r/aC/8yzOMA0GCSqGSIb3DQEB
CwUAA4IBAQA9wTDAppEQezrW2S7inCMDSIhyOp4CTc3+tvcUdx8PmJQ/7ZB+ZA0t
1E143Y8QixXQZV4YaOp8vvU6hOUjquHQFWEgPFwGCjPiOaYRFc9mdBCAnYbejD2b
eArLh937h+YbdPmBV66SyNBieGMRbTQtP/OLguBmjw+UES5iBmsdXn9JkMabwyKr
82I9kGGqPJYoVbKW7O0q8oiUeLkSrUJxDq3RgtuCNwvj7fVZUIeE5h1nJbV5w5AA
bVlf7nKS6J5K5QcqChmOE70vH5ukwcriXR8x24DSUlVnuKZTGRhjI1tJPdYGf1fj
Q94XGDKFlyDV3Yp+fDvQzIWW1ZY8KXaF
-----END CERTIFICATE-----
