Certificate:
    Data:
        Version: 3 (0x2)
        Serial Number: 1 (0x1)
    Signature Algorithm: sha256WithRSAEncryption
        Issuer: CN=cacert, C=FI, ST=Helsinki, L=Helsinki, O=MariaDB
        Validity
            Not Before: Apr 24 14:29:39 2019 GMT
            Not After : Apr 19 14:29:39 2039 GMT
        Subject: C=FI, ST=state or province within country, in other certificates in this file it is the same as L, L=location, usually an address but often ambiguously used, O=organization name, typically a company name, OU=organizational unit name, a division name within an organization, CN=localhost
        Subject Public Key Info:
            Public Key Algorithm: rsaEncryption
                Public-Key: (1024 bit)
                Modulus:
                    00:b6:42:a0:5e:1e:05:5e:7f:15:bf:7c:a4:d6:c7:
                    a8:cd:cc:db:f4:c4:e5:6d:f3:53:47:90:7b:d2:d6:
                    d9:0d:45:7c:62:aa:81:64:3d:b8:db:29:1f:0c:af:
                    35:69:d3:82:7a:66:86:7b:97:ce:0f:54:a1:7c:ae:
                    97:0c:0b:7a:1e:cc:60:bb:c5:bb:a1:47:d3:c8:22:
                    a0:79:11:2c:09:85:f2:2d:be:24:5a:73:88:d8:45:
                    bc:6d:d2:9e:7b:8d:9d:55:f2:c1:1e:e6:cd:20:a0:
                    8b:b4:3b:85:0c:4b:06:b3:d5:1e:51:1f:a5:ea:fc:
                    81:74:c6:bd:59:f8:81:35:05
                Exponent: 65537 (0x10001)
        X509v3 extensions:
            X509v3 Basic Constraints: 
                CA:FALSE
            Netscape Comment: 
                OpenSSL Generated Certificate
            X509v3 Subject Key Identifier: 
                2E:E9:8D:DA:55:FE:77:34:F0:0F:F0:07:02:31:7C:7D:DE:D4:0C:D5
            X509v3 Authority Key Identifier: 
                keyid:F3:1D:A0:5F:69:33:8A:A4:B4:76:97:A2:6E:AB:FD:A0:BF:F3:2C:CE

    Signature Algorithm: sha256WithRSAEncryption
         8e:80:73:98:21:69:44:9a:75:e9:08:ec:53:fa:48:84:6b:36:
         66:d6:84:0d:1c:d0:89:c8:9e:59:0b:33:64:2d:92:ee:a3:f1:
         c9:a4:5f:52:5f:b3:39:d9:36:9a:0d:9b:44:79:72:27:81:06:
         8b:bb:b7:ec:f2:d4:23:ca:03:0b:19:44:c5:64:9a:0e:e9:b5:
         4a:db:bb:7a:47:65:5f:be:00:25:0b:67:42:ad:3a:89:ba:e7:
         97:c1:88:dd:22:49:57:21:3d:fe:c3:e8:ab:70:6c:d1:a3:7d:
         3e:ac:8f:d5:a7:df:4e:5a:de:7b:71:60:16:a8:5c:c8:3b:9a:
         f9:86:92:27:ae:9b:73:fb:0f:f0:09:d0:9d:f0:2a:df:54:86:
         44:b5:29:af:93:d3:03:fa:48:72:44:69:85:d3:9f:d5:7f:5c:
         4c:30:af:e7:37:0b:db:29:74:fe:d2:49:ce:90:fb:af:a5:39:
         a6:98:83:c6:51:63:e3:3e:bf:b1:9b:8b:26:bd:34:69:cc:d4:
         2c:6e:6c:2d:90:01:9b:3c:4c:9d:cc:4f:f4:86:2a:44:92:2e:
         ab:ac:eb:e0:55:6d:50:cf:0d:52:ac:d5:3f:3e:36:4e:21:61:
         ee:2f:40:a2:52:be:42:f6:81:aa:c3:9f:4a:6c:68:02:1c:8b:
         63:e1:ec:8e
-----BEGIN CERTIFICATE-----
MIIEETCCAvmgAwIBAgIBATANBgkqhkiG9w0BAQsFADBWMQ8wDQYDVQQDDAZjYWNl
cnQxCzAJBgNVBAYTAkZJMREwDwYDVQQIDAhIZWxzaW5raTERMA8GA1UEBwwISGVs
c2lua2kxEDAOBgNVBAoMB01hcmlhREIwHhcNMTkwNDI0MTQyOTM5WhcNMzkwNDE5
MTQyOTM5WjCCAUcxCzAJBgNVBAYTAkZJMWEwXwYDVQQIDFhzdGF0ZSBvciBwcm92
aW5jZSB3aXRoaW4gY291bnRyeSwgaW4gb3RoZXIgY2VydGlmaWNhdGVzIGluIHRo
aXMgZmlsZSBpdCBpcyB0aGUgc2FtZSBhcyBMMUAwPgYDVQQHDDdsb2NhdGlvbiwg
dXN1YWxseSBhbiBhZGRyZXNzIGJ1dCBvZnRlbiBhbWJpZ3VvdXNseSB1c2VkMTQw
MgYDVQQKDCtvcmdhbml6YXRpb24gbmFtZSwgdHlwaWNhbGx5IGEgY29tcGFueSBu
YW1lMUkwRwYDVQQLDEBvcmdhbml6YXRpb25hbCB1bml0IG5hbWUsIGEgZGl2aXNp
b24gbmFtZSB3aXRoaW4gYW4gb3JnYW5pemF0aW9uMRIwEAYDVQQDDAlsb2NhbGhv
c3QwgZ8wDQYJKoZIhvcNAQEBBQADgY0AMIGJAoGBALZCoF4eBV5/Fb98pNbHqM3M
2/TE5W3zU0eQe9LW2Q1FfGKqgWQ9uNspHwyvNWnTgnpmhnuXzg9UoXyulwwLeh7M
YLvFu6FH08gioHkRLAmF8i2+JFpziNhFvG3SnnuNnVXywR7mzSCgi7Q7hQxLBrPV
HlEfper8gXTGvVn4gTUFAgMBAAGjezB5MAkGA1UdEwQCMAAwLAYJYIZIAYb4QgEN
BB8WHU9wZW5TU0wgR2VuZXJhdGVkIENlcnRpZmljYXRlMB0GA1UdDgQWBBQu6Y3a
Vf53NPAP8AcCMXx93tQM1TAfBgNVHSMEGDAWgBTzHaBfaTOKpLR2l6Juq/2gv/Ms
zjANBgkqhkiG9w0BAQsFAAOCAQEAjoBzmCFpRJp16QjsU/pIhGs2ZtaEDRzQicie
WQszZC2S7qPxyaRfUl+zOdk2mg2bRHlyJ4EGi7u37PLUI8oDCxlExWSaDum1Stu7
ekdlX74AJQtnQq06ibrnl8GI3SJJVyE9/sPoq3Bs0aN9PqyP1affTlree3FgFqhc
yDua+YaSJ66bc/sP8AnQnfAq31SGRLUpr5PTA/pIckRphdOf1X9cTDCv5zcL2yl0
/tJJzpD7r6U5ppiDxlFj4z6/sZuLJr00aczULG5sLZABmzxMncxP9IYqRJIuq6zr
4FVtUM8NUqzVPz42TiFh7i9AolK+QvaBqsOfSmxoAhyLY+Hsjg==
-----END CERTIFICATE-----
