Certificate:
    Data:
        Version: 3 (0x2)
        Serial Number: 3 (0x3)
        Signature Algorithm: sha256WithRSAEncryption
        Issuer: CN=cacert, C=FI, ST=Helsinki, L=Helsinki, O=MariaDB
        Validity
            Not Before: Apr 22 18:06:08 2026 GMT
            Not After : Apr 18 18:06:08 2046 GMT
        Subject: C=FI, ST=Helsinki, L=Helsinki, O=MariaDB, CN='`touch A`'-"`touch B`"
        Subject Public Key Info:
            Public Key Algorithm: rsaEncryption
                Public-Key: (4096 bit)
                Modulus:
                    00:b0:bd:aa:b2:7b:3a:b8:98:2b:48:36:c0:f2:c9:
                    90:b1:88:39:1d:58:e3:0b:1c:b3:73:ae:8c:b1:db:
                    9b:93:40:d8:4e:2a:bb:3c:65:a5:02:78:fd:1d:04:
                    24:c6:8b:b6:5e:21:13:bb:cf:20:5c:d6:d2:fb:3b:
                    2b:03:cc:4d:e7:e6:06:8c:2f:10:9c:d2:77:af:1c:
                    1d:d3:d0:02:88:f0:17:3f:79:4c:bf:c6:95:63:05:
                    04:02:1d:a2:ba:eb:e8:6a:e4:8b:80:48:b4:28:8d:
                    ed:46:28:79:87:e3:58:42:65:3f:20:14:c9:16:93:
                    9d:14:86:b3:4e:b5:30:98:9d:83:00:a1:30:56:38:
                    1d:67:f3:ff:3e:39:d9:c4:30:0a:4b:b1:6d:a1:17:
                    0b:9e:a0:0b:c2:16:fd:7f:72:ba:f9:3c:00:58:87:
                    8d:3c:16:a6:1e:00:ae:33:9c:aa:a2:d7:37:c7:1c:
                    66:2a:c4:cf:32:9d:02:08:6b:3f:2b:c8:9c:26:3c:
                    53:57:69:73:f6:83:84:cd:fc:42:ad:a9:9f:37:ef:
                    c2:f0:72:0a:84:52:92:f8:d8:cf:10:54:02:24:93:
                    a4:b1:48:1c:34:74:1e:1c:3e:61:46:93:6c:b5:5b:
                    a5:fc:a7:9d:4e:76:72:e6:85:b4:57:5f:c8:da:7a:
                    fd:71:98:ca:70:2e:92:3a:83:d9:6a:54:d6:d0:31:
                    ae:dc:ad:49:f4:76:f7:d4:f4:79:a6:b5:a2:5f:da:
                    d3:ed:f2:cf:4e:55:e1:f2:64:9e:9f:b4:a8:df:f6:
                    53:21:15:b4:fe:f8:72:c4:d0:1d:b5:35:b8:ca:c7:
                    65:ae:b6:24:24:a8:a6:e7:5b:d1:de:e7:c4:53:21:
                    13:64:ff:89:d4:4f:79:03:6a:37:cf:d9:ef:0c:ce:
                    6f:92:ae:fb:0b:d9:a8:3e:67:0f:b7:71:88:dc:ba:
                    a8:b1:8d:fa:fa:2e:53:54:80:c4:a2:a4:26:a5:c9:
                    66:5e:75:d5:1f:99:d9:90:c2:77:89:60:13:f1:71:
                    e8:a2:f5:4a:62:b2:3c:8d:e1:22:75:b0:bb:29:83:
                    bb:69:b2:ab:08:28:0d:63:70:12:4c:ec:fe:08:e4:
                    d2:ca:21:48:3c:f4:3c:e6:14:e9:3e:5a:50:89:3d:
                    0d:4d:93:73:7f:ff:3d:13:2c:b1:fb:81:a0:24:7a:
                    e7:66:43:40:47:24:e2:c5:ca:7d:8b:af:70:8d:63:
                    2d:f8:f7:70:99:46:ba:48:7c:d1:08:3b:7b:78:05:
                    fe:bc:0c:09:ab:7d:43:ba:b1:a9:fd:62:be:2c:8c:
                    9d:68:b6:43:4a:cc:40:25:3a:62:e2:52:95:e8:3d:
                    6f:34:19
                Exponent: 65537 (0x10001)
        X509v3 extensions:
            X509v3 Basic Constraints: 
                CA:FALSE
            X509v3 Subject Key Identifier: 
                15:B2:A0:7E:13:1F:B0:88:CE:E5:E0:FF:D6:8F:8A:D1:01:B6:F2:00
            X509v3 Authority Key Identifier: 
                4D:FC:7A:19:F3:2B:0C:7D:F6:C0:7C:4D:F8:72:34:4C:8C:35:52:74
    Signature Algorithm: sha256WithRSAEncryption
    Signature Value:
        4a:4b:4b:69:2e:c9:d7:c1:ce:63:e2:76:9b:3d:09:76:98:1c:
        73:cc:38:c2:e7:be:d6:14:de:38:97:e5:ed:53:e2:60:e2:1b:
        7f:6c:68:1c:f8:90:6c:0d:fc:1e:1a:ee:b6:53:77:5f:71:66:
        9d:81:a5:ba:c2:92:c7:77:eb:a7:f1:2f:8f:b0:37:68:97:25:
        18:a7:88:6a:b0:b6:26:32:a7:dc:55:e1:e2:7e:12:03:70:c5:
        28:c3:4d:32:d7:d8:b6:21:a3:8a:34:b6:6e:2b:b4:43:31:48:
        82:1b:84:4d:28:39:1c:e2:f1:70:eb:7b:2f:1b:7b:d7:6e:2a:
        eb:76:15:5c:71:0b:e6:ff:66:4c:ad:92:da:06:f7:fe:28:99:
        00:ce:3c:e9:20:c1:e2:bd:f8:2b:cb:35:3a:5a:74:01:91:a6:
        86:e4:c3:8c:5b:ab:c8:5d:f3:0f:d7:fe:0e:02:e4:70:08:f8:
        0a:15:87:26:24:62:77:5b:51:97:3c:37:71:fe:5b:2c:5d:66:
        79:78:ee:42:59:9e:03:a7:05:83:f5:89:12:fe:ce:53:f5:68:
        45:aa:7a:6d:ac:44:84:a2:42:e3:5f:8e:e5:00:23:fe:55:0f:
        2a:5f:43:8b:34:bf:29:fe:48:57:00:f0:8a:13:f9:21:e5:ec:
        2c:d0:22:48:5d:b1:7e:b7:13:e1:e1:05:9a:8c:8c:fb:76:a0:
        42:51:98:24:7e:03:46:5a:de:c7:f9:72:6a:87:02:a7:72:b9:
        6c:71:08:ff:20:e2:77:c1:5e:42:54:06:bd:d7:21:05:a6:aa:
        89:3b:a6:cc:41:27:02:88:9a:83:39:38:85:1f:f4:76:7a:cd:
        90:c4:7a:12:1e:92:6e:8a:b0:be:c4:d3:2f:5e:8d:bb:86:bc:
        31:39:d0:3d:65:6b:90:af:3d:b3:c6:69:b5:ce:55:f1:d7:e5:
        a2:8b:f1:6f:51:71:f9:17:aa:ce:a2:8a:a9:9a:a5:aa:6c:22:
        72:d6:d9:7e:a8:0d:b5:c3:34:ef:1a:95:24:0b:a9:4e:bc:b1:
        60:08:b8:c7:b4:2c:79:93:49:5e:ec:df:8c:28:da:cb:c0:59:
        f2:28:58:e6:54:17:b4:c1:6a:ea:a3:7b:e3:95:1e:04:a6:7e:
        bf:50:2b:27:94:83:3e:42:7e:8e:c1:db:92:48:41:19:b0:82:
        96:fa:f5:67:3c:24:8b:e8:4b:a9:09:5c:61:75:55:ed:74:23:
        8d:ac:67:d8:41:44:67:41:81:2f:ec:44:18:f5:93:49:88:e1:
        31:4a:0c:a4:e0:2c:ef:f6:4c:8c:95:be:49:5c:1b:d2:f8:5b:
        c6:8e:ce:08:a1:4b:be:b3
-----BEGIN CERTIFICATE-----
MIIFhTCCA22gAwIBAgIBAzANBgkqhkiG9w0BAQsFADBWMQ8wDQYDVQQDDAZjYWNl
cnQxCzAJBgNVBAYTAkZJMREwDwYDVQQIDAhIZWxzaW5raTERMA8GA1UEBwwISGVs
c2lua2kxEDAOBgNVBAoMB01hcmlhREIwHhcNMjYwNDIyMTgwNjA4WhcNNDYwNDE4
MTgwNjA4WjBnMQswCQYDVQQGEwJGSTERMA8GA1UECAwISGVsc2lua2kxETAPBgNV
BAcMCEhlbHNpbmtpMRAwDgYDVQQKDAdNYXJpYURCMSAwHgYDVQQDDBcnYHRvdWNo
IEFgJy0iYHRvdWNoIEJgIjCCAiIwDQYJKoZIhvcNAQEBBQADggIPADCCAgoCggIB
ALC9qrJ7OriYK0g2wPLJkLGIOR1Y4wscs3OujLHbm5NA2E4quzxlpQJ4/R0EJMaL
tl4hE7vPIFzW0vs7KwPMTefmBowvEJzSd68cHdPQAojwFz95TL/GlWMFBAIdorrr
6Grki4BItCiN7UYoeYfjWEJlPyAUyRaTnRSGs061MJidgwChMFY4HWfz/z452cQw
CkuxbaEXC56gC8IW/X9yuvk8AFiHjTwWph4ArjOcqqLXN8ccZirEzzKdAghrPyvI
nCY8U1dpc/aDhM38Qq2pnzfvwvByCoRSkvjYzxBUAiSTpLFIHDR0Hhw+YUaTbLVb
pfynnU52cuaFtFdfyNp6/XGYynAukjqD2WpU1tAxrtytSfR299T0eaa1ol/a0+3y
z05V4fJknp+0qN/2UyEVtP74csTQHbU1uMrHZa62JCSopudb0d7nxFMhE2T/idRP
eQNqN8/Z7wzOb5Ku+wvZqD5nD7dxiNy6qLGN+vouU1SAxKKkJqXJZl511R+Z2ZDC
d4lgE/Fx6KL1SmKyPI3hInWwuymDu2myqwgoDWNwEkzs/gjk0sohSDz0POYU6T5a
UIk9DU2Tc3//PRMssfuBoCR652ZDQEck4sXKfYuvcI1jLfj3cJlGukh80Qg7e3gF
/rwMCat9Q7qxqf1iviyMnWi2Q0rMQCU6YuJSleg9bzQZAgMBAAGjTTBLMAkGA1Ud
EwQCMAAwHQYDVR0OBBYEFBWyoH4TH7CIzuXg/9aPitEBtvIAMB8GA1UdIwQYMBaA
FE38ehnzKwx99sB8TfhyNEyMNVJ0MA0GCSqGSIb3DQEBCwUAA4ICAQBKS0tpLsnX
wc5j4nabPQl2mBxzzDjC577WFN44l+XtU+Jg4ht/bGgc+JBsDfweGu62U3dfcWad
gaW6wpLHd+un8S+PsDdolyUYp4hqsLYmMqfcVeHifhIDcMUow00y19i2IaOKNLZu
K7RDMUiCG4RNKDkc4vFw63svG3vXbirrdhVccQvm/2ZMrZLaBvf+KJkAzjzpIMHi
vfgryzU6WnQBkaaG5MOMW6vIXfMP1/4OAuRwCPgKFYcmJGJ3W1GXPDdx/lssXWZ5
eO5CWZ4DpwWD9YkS/s5T9WhFqnptrESEokLjX47lACP+VQ8qX0OLNL8p/khXAPCK
E/kh5ews0CJIXbF+txPh4QWajIz7dqBCUZgkfgNGWt7H+XJqhwKncrlscQj/IOJ3
wV5CVAa91yEFpqqJO6bMQScCiJqDOTiFH/R2es2QxHoSHpJuirC+xNMvXo27hrwx
OdA9ZWuQrz2zxmm1zlXx1+Wii/FvUXH5F6rOooqpmqWqbCJy1tl+qA21wzTvGpUk
C6lOvLFgCLjHtCx5k0le7N+MKNrLwFnyKFjmVBe0wWrqo3vjlR4Epn6/UCsnlIM+
Qn6OwduSSEEZsIKW+vVnPCSL6EupCVxhdVXtdCONrGfYQURnQYEv7EQY9ZNJiOEx
Sgyk4Czv9kyMlb5JXBvS+FvGjs4IoUu+sw==
-----END CERTIFICATE-----
