Certificate:
    Data:
        Version: 3 (0x2)
        Serial Number:
            5c:81:fd:b9:82:69:e0:46:8d:99:ed:d0:95:4b:d3:d6:62:8a:69:97
        Signature Algorithm: sha256WithRSAEncryption
        Issuer: CN = cacert, C = FI, ST = Helsinki, L = Helsinki, O = MariaDB
        Validity
            Not Before: Mar  3 03:03:03 2020 GMT
            Not After : Feb 27 03:03:03 2040 GMT
        Subject: CN = cacert, C = FI, ST = Helsinki, L = Helsinki, O = MariaDB
        Subject Public Key Info:
            Public Key Algorithm: rsaEncryption
                RSA Public-Key: (4096 bit)
                Modulus:
                    00:bc:72:01:10:68:c1:df:fa:d1:77:55:7c:09:13:
                    19:51:41:cd:ed:4f:51:43:22:e7:97:0e:94:fc:0d:
                    1d:a9:c6:f3:17:79:31:6f:12:7a:9b:7f:87:e2:55:
                    16:d5:a4:dd:6a:d3:5e:4f:e2:e0:bc:c4:9f:c5:95:
                    1a:47:13:a5:cd:6d:f3:76:e2:9a:12:31:76:e4:f1:
                    01:94:37:45:10:32:18:9e:cc:d8:7f:04:ca:18:97:
                    bf:22:2e:51:ba:73:6f:46:50:36:fe:df:82:4c:8a:
                    9e:34:be:44:f4:12:61:72:18:b3:81:b5:d9:b2:69:
                    8f:7d:f4:8b:41:62:34:59:71:f7:e4:26:a6:cf:55:
                    4d:d4:52:a3:37:24:bd:82:21:9f:d1:db:cd:e9:12:
                    a9:cf:60:48:3d:da:ea:a0:a7:d0:57:16:68:49:e5:
                    b4:e8:dc:d0:b0:12:b3:c7:1c:f1:b3:b1:eb:12:8b:
                    c7:3e:3c:02:fe:f6:4c:a8:35:d8:cf:74:64:63:89:
                    84:3e:75:88:a0:0b:80:5c:ea:68:b2:9c:bb:e3:ae:
                    4f:cd:24:b9:97:89:95:4e:3f:78:48:ba:ad:97:4c:
                    bf:f8:8b:14:80:f4:78:03:11:4b:a7:e3:99:1c:82:
                    59:bf:b6:f3:3e:3e:db:db:38:73:91:8d:f0:6f:e5:
                    5d:02:e7:c0:a5:8b:ad:69:f1:17:29:2c:16:41:ad:
                    ac:0f:64:c8:f7:62:58:da:73:66:f7:91:2c:89:f7:
                    80:6b:d7:91:f1:c8:4a:5a:c4:2d:3d:0b:18:83:f1:
                    e9:74:2d:83:bb:09:46:bd:f0:40:ad:0b:dd:0c:45:
                    64:8d:9e:cf:a7:a0:6c:d2:cc:f1:f9:05:15:7a:e3:
                    02:15:b0:e6:99:cd:81:5b:dd:52:9b:c0:35:25:fa:
                    4c:88:47:1d:16:19:9f:9d:f0:54:01:6e:20:6a:10:
                    ab:4f:d2:a2:a7:31:db:6d:76:26:0d:35:9d:ac:1f:
                    4e:4d:37:87:2c:78:26:d4:1f:f0:87:fc:f4:e2:2a:
                    af:9a:a4:d6:69:93:16:4f:ed:fb:e0:78:99:36:49:
                    d2:2e:7d:44:15:94:58:bd:ba:bc:d3:b9:75:5c:58:
                    13:69:18:8e:5d:0e:c9:0c:dd:06:c4:7b:fc:34:3e:
                    df:51:46:8d:5e:33:40:ba:39:75:9a:29:a5:f0:be:
                    d3:a1:2c:72:88:85:4a:a0:2e:d9:71:15:30:49:57:
                    f4:1b:73:e4:b3:b1:9e:3e:e6:0b:30:0a:eb:e9:cc:
                    ec:98:4c:36:ea:58:8a:aa:b1:4b:b9:e1:5e:4a:d0:
                    81:65:f0:ba:2c:b0:a6:8e:02:f1:c6:e0:78:b9:49:
                    eb:8e:79
                Exponent: 65537 (0x10001)
        X509v3 extensions:
            X509v3 Subject Key Identifier: 
                4D:FC:7A:19:F3:2B:0C:7D:F6:C0:7C:4D:F8:72:34:4C:8C:35:52:74
            X509v3 Authority Key Identifier: 
                keyid:4D:FC:7A:19:F3:2B:0C:7D:F6:C0:7C:4D:F8:72:34:4C:8C:35:52:74

            X509v3 Basic Constraints: critical
                CA:TRUE
    Signature Algorithm: sha256WithRSAEncryption
         3c:e7:3a:e8:b6:d1:be:ca:27:ad:02:00:08:b7:1f:2d:e9:cd:
         81:9f:98:f0:f0:a4:c5:dd:dc:94:a1:a6:bd:31:56:54:05:6a:
         da:b1:1b:42:35:ef:f8:75:1c:0d:0f:00:77:24:a7:ef:5f:f1:
         ce:38:3a:05:a7:22:a6:40:b6:6c:57:46:31:e8:ba:2f:b5:9e:
         fb:7c:07:93:5c:cb:82:59:1a:2f:13:5b:6d:55:8d:d9:dd:ec:
         44:b2:7f:89:26:37:da:fc:e8:aa:af:87:8b:5e:c3:3e:21:c2:
         a0:ca:2a:49:78:fa:9d:10:5c:e8:2c:24:ac:e8:f3:61:25:cb:
         86:6c:8f:1d:4c:2f:83:bd:d4:72:dc:54:1b:fa:3d:1a:d4:54:
         a9:ac:87:70:ff:cf:53:26:1f:e7:11:bc:b3:89:d0:71:25:09:
         d9:80:09:42:b1:5a:8d:01:a9:89:1e:2c:cc:89:e7:f8:c2:43:
         4b:20:cd:ce:9c:2f:67:99:35:4f:e2:ec:00:07:3d:69:6e:9e:
         48:93:d4:56:b1:0b:52:00:d9:86:05:1e:ea:64:68:a1:87:04:
         0f:17:45:82:8e:f5:13:7a:90:79:c8:fd:42:e8:80:df:3b:46:
         bc:39:c9:76:14:90:8e:cd:80:98:84:56:43:88:33:1e:ac:4a:
         cb:48:8d:ff:35:d4:68:0e:ef:bf:1a:b5:34:17:7a:c8:c2:e8:
         f0:18:f6:58:07:9b:09:9f:b5:e2:29:e2:5e:cb:b9:71:ce:13:
         90:6d:b7:4e:23:31:bc:ab:17:b4:3d:96:17:4b:f8:01:49:b9:
         0a:0c:73:1d:54:de:51:79:3a:fb:f0:b5:10:8d:38:ad:87:36:
         0f:36:48:11:f7:1b:d6:2f:ed:a7:1d:73:74:45:19:69:1d:9f:
         86:ec:a3:2b:8e:fd:5a:33:08:4d:17:41:df:57:8a:1e:99:c1:
         bc:aa:15:a1:af:2c:23:67:4e:31:45:91:fb:8f:af:1e:19:a6:
         0f:bb:d9:3a:55:cc:b0:a2:41:a5:99:20:cc:64:91:f7:8e:6b:
         c4:ad:5a:c8:ca:3d:74:36:91:97:34:f1:f8:c5:22:87:6b:e3:
         cf:9c:0a:75:5a:09:30:88:9d:07:99:2d:ef:87:75:45:ed:0f:
         75:8a:88:6c:b0:7e:dc:c3:d4:50:c4:25:0c:de:f7:53:f6:12:
         bd:5a:8b:81:3a:30:83:b7:66:5e:7e:8f:d8:65:ab:2a:fa:85:
         d4:4b:61:fb:27:98:79:cb:d6:06:07:23:7f:d9:1d:79:3e:71:
         a7:0c:c8:e8:0e:e0:40:66:4d:8d:0e:9c:41:c0:d2:2c:91:95:
         63:d5:c4:12:cd:9b:bc:f4
-----BEGIN CERTIFICATE-----
MIIFjTCCA3WgAwIBAgIUXIH9uYJp4EaNme3QlUvT1mKKaZcwDQYJKoZIhvcNAQEL
BQAwVjEPMA0GA1UEAwwGY2FjZXJ0MQswCQYDVQQGEwJGSTERMA8GA1UECAwISGVs
c2lua2kxETAPBgNVBAcMCEhlbHNpbmtpMRAwDgYDVQQKDAdNYXJpYURCMB4XDTIw
MDMwMzAzMDMwM1oXDTQwMDIyNzAzMDMwM1owVjEPMA0GA1UEAwwGY2FjZXJ0MQsw
CQYDVQQGEwJGSTERMA8GA1UECAwISGVsc2lua2kxETAPBgNVBAcMCEhlbHNpbmtp
MRAwDgYDVQQKDAdNYXJpYURCMIICIjANBgkqhkiG9w0BAQEFAAOCAg8AMIICCgKC
AgEAvHIBEGjB3/rRd1V8CRMZUUHN7U9RQyLnlw6U/A0dqcbzF3kxbxJ6m3+H4lUW
1aTdatNeT+LgvMSfxZUaRxOlzW3zduKaEjF25PEBlDdFEDIYnszYfwTKGJe/Ii5R
unNvRlA2/t+CTIqeNL5E9BJhchizgbXZsmmPffSLQWI0WXH35Camz1VN1FKjNyS9
giGf0dvN6RKpz2BIPdrqoKfQVxZoSeW06NzQsBKzxxzxs7HrEovHPjwC/vZMqDXY
z3RkY4mEPnWIoAuAXOpospy7465PzSS5l4mVTj94SLqtl0y/+IsUgPR4AxFLp+OZ
HIJZv7bzPj7b2zhzkY3wb+VdAufApYutafEXKSwWQa2sD2TI92JY2nNm95EsifeA
a9eR8chKWsQtPQsYg/HpdC2DuwlGvfBArQvdDEVkjZ7Pp6Bs0szx+QUVeuMCFbDm
mc2BW91Sm8A1JfpMiEcdFhmfnfBUAW4gahCrT9KipzHbbXYmDTWdrB9OTTeHLHgm
1B/wh/z04iqvmqTWaZMWT+374HiZNknSLn1EFZRYvbq807l1XFgTaRiOXQ7JDN0G
xHv8ND7fUUaNXjNAujl1miml8L7ToSxyiIVKoC7ZcRUwSVf0G3Pks7GePuYLMArr
6czsmEw26liKqrFLueFeStCBZfC6LLCmjgLxxuB4uUnrjnkCAwEAAaNTMFEwHQYD
VR0OBBYEFE38ehnzKwx99sB8TfhyNEyMNVJ0MB8GA1UdIwQYMBaAFE38ehnzKwx9
9sB8TfhyNEyMNVJ0MA8GA1UdEwEB/wQFMAMBAf8wDQYJKoZIhvcNAQELBQADggIB
ADznOui20b7KJ60CAAi3Hy3pzYGfmPDwpMXd3JShpr0xVlQFatqxG0I17/h1HA0P
AHckp+9f8c44OgWnIqZAtmxXRjHoui+1nvt8B5Ncy4JZGi8TW21Vjdnd7ESyf4km
N9r86Kqvh4tewz4hwqDKKkl4+p0QXOgsJKzo82Ely4Zsjx1ML4O91HLcVBv6PRrU
VKmsh3D/z1MmH+cRvLOJ0HElCdmACUKxWo0BqYkeLMyJ5/jCQ0sgzc6cL2eZNU/i
7AAHPWlunkiT1FaxC1IA2YYFHupkaKGHBA8XRYKO9RN6kHnI/ULogN87Rrw5yXYU
kI7NgJiEVkOIMx6sSstIjf811GgO778atTQXesjC6PAY9lgHmwmfteIp4l7LuXHO
E5Btt04jMbyrF7Q9lhdL+AFJuQoMcx1U3lF5OvvwtRCNOK2HNg82SBH3G9Yv7acd
c3RFGWkdn4bsoyuO/VozCE0XQd9Xih6ZwbyqFaGvLCNnTjFFkfuPrx4Zpg+72TpV
zLCiQaWZIMxkkfeOa8StWsjKPXQ2kZc08fjFIodr48+cCnVaCTCInQeZLe+HdUXt
D3WKiGywftzD1FDEJQze91P2Er1ai4E6MIO3Zl5+j9hlqyr6hdRLYfsnmHnL1gYH
I3/ZHXk+cacMyOgO4EBmTY0OnEHA0iyRlWPVxBLNm7z0
-----END CERTIFICATE-----
